
build/program.elf:     file format elf32-littleriscv

Contents of section .text.init:
 0000 17010100 13010100 ef008000 6f000000  ............o...
Contents of section .text:
 0010 97110000 9381819c 17250000 13050559  .........%.....Y
 0020 17260000 1306465a 3306a640 93050000  .&....FZ3..@....
 0030 ef00c00c 17150000 130585c2 63080500  ............c...
 0040 17250000 1305c5d4 ef005041 ef005023  .%........PA..P#
 0050 03250100 93054100 13060000 ef00c017  .%....A.........
 0060 6f00001e 130101ff 23248100 37240000  o.......#$..7$..
 0070 8347845a 23261100 63920702 93070000  .G.Z#&..c.......
 0080 638a0700 37250000 13058504 97000000  c...7%..........
 0090 e7000000 93071000 2304f45a 8320c100  ........#..Z. ..
 00a0 03248100 13010101 67800000 93070000  .$......g.......
 00b0 638e0700 b7250000 37250000 9385c55a  c....%..7%.....Z
 00c0 13058504 17030000 67000000 67800000  ........g...g...
 00d0 130101ff 23260100 8327c100 63fca700  ....#&...'..c...
 00e0 8327c100 93871700 2326f100 8327c100  .'......#&...'..
 00f0 e3e8a7fe 13010101 67800000 1303f000  ........g.......
 0100 13070500 637ec302 9377f700 6390070a  ....c~...w..c...
 0110 63920508 937606ff 1376f600 b386e600  c....v...v......
 0120 2320b700 2322b700 2324b700 2326b700  # ..#"..#$..#&..
 0130 13070701 e366d7fe 63140600 67800000  .....f..c...g...
 0140 b306c340 93962600 97020000 b3865600  ...@..&.......V.
 0150 6780c600 2307b700 a306b700 2306b700  g...#.......#...
 0160 a305b700 2305b700 a304b700 2304b700  ....#.......#...
 0170 a303b700 2303b700 a302b700 2302b700  ....#.......#...
 0180 a301b700 2301b700 a300b700 2300b700  ....#.......#...
 0190 67800000 93f5f50f 93968500 b3e5d500  g...............
 01a0 93960501 b3e5d500 6ff0dff6 93962700  ........o.....'.
 01b0 97020000 b3865600 93820000 e78006fa  ......V.........
 01c0 93800200 938707ff 3307f740 3306f600  ........3..@3...
 01d0 e378c3f6 6ff0dff3                    .x..o...        
Contents of section .text.startup:
 01d8 b7270000 83a5c758 93061000 37574c00  .'.....X....7WL.
 01e8 130101ff 13860600 1307f7b3 3785ffff  ............7...
 01f8 638c0602 13161600 b306a600 b336d000  c............6..
 0208 23a0c500 23260100 8327c100 e362f7fe  #...#&...'...b..
 0218 8327c100 93871700 2326f100 8327c100  .'......#&...'..
 0228 e378f7fe e39806fc 13561640 9306f6ff  .x.......V.@....
 0238 93b61600 6ff0dffc                    ....o...        
Contents of section .text.exit:
 0240 130101ff 93050000 23248100 23261100  ........#$..#&..
 0250 13040500 ef00100d b7270000 83a7c76f  .........'.....o
 0260 63840700 e7800700 13050400 ef109045  c..............E
Contents of section .text.__fp_lock:
 0270 13050000 67800000                    ....g...        
Contents of section .text.stdio_exit_handler:
 0278 37260000 b7250000 37250000 13060605  7&...%..7%......
 0288 9385458d 13050506 6f008035           ..E.....o..5    
Contents of section .text.cleanup_stdio:
 0294 83254500 130101ff b7270000 23248100  .%E......'..#$..
 02a4 23261100 9387475c 13040500 6384f500  #&....G\....c...
 02b4 ef100062 83258400 b7270000 9387c762  ...b.%...'.....b
 02c4 6386f500 13050400 ef108060 8325c400  c..........`.%..
 02d4 b7270000 93874769 638cf500 13050400  .'....Gic.......
 02e4 03248100 8320c100 13010101 6f10405e  .$... ......o.@^
 02f4 8320c100 03248100 13010101 67800000  . ...$......g...
Contents of section .text.__fp_unlock:
 0304 13050000 67800000                    ....g...        
Contents of section .text.global_stdio_init.part.0:
 030c 130101fe 232c8100 37240000 37250000  ....#,..7$..7%..
 031c 1304445c 232e1100 232a9100 23282101  ..D\#...#*..#(!.
 032c 23263101 23244101 b7260000 13074000  #&1.#$A..&....@.
 033c 93078027 13068000 93050000 13050562  ...'...........b
 034c 23aef66e 2326e400 23200400 23220400  #..n#&..# ..#"..
 035c 23240400 23220406 23280400 232a0400  #$..#"..#(..#*..
 036c 232c0400 eff0dfd8 b7070100 37250000  #,..........7%..
 037c 130ac069 93090070 13098078 9304c07e  ...i...p...x...~
 038c 93879700 13068000 93050000 13058568  ...............h
 039c 232af406 23204403 23223403 23242403  #*..# D.#"4.#$$.
 03ac 23269402 232e8400 23240406 23260406  #&..#...#$..#&..
 03bc 23280406 2326040c 232c0406 232e0406  #(..#&..#,..#...
 03cc 23200408 eff0dfd2 37270000 b7070200  # ......7'......
 03dc 37250000 93872701 1307c762 1305056f  7%....'....b...o
 03ec 13068000 93050000 23244409 23263409  ........#$D.#&4.
 03fc 23282409 232a9408 232ef40c 2328040c  #($.#*..#...#(..
 040c 232a040c 232c040c 232a0412 2320040e  #*..#,..#*..# ..
 041c 2322040e 2324040e 2322e408 eff05fcd  #"..#$..#"...._.
 042c b7270000 93874769 2328440f 232a340f  .'....Gi#(D.#*4.
 043c 232c240f 232e940e 8320c101 2326f40e  #,$.#.... ..#&..
 044c 03248101 83244101 03290101 8329c100  .$...$A..)...)..
 045c 032a8100 13010102 67800000           .*......g...    
Contents of section .text.__sfp:
 0468 b7270000 83a7c76f 130101fe 23263101  .'.....o....#&1.
 0478 232e1100 232c8100 232a9100 23282101  #...#,..#*..#(!.
 0488 93090500 6388070e 37290000 13090905  ....c...7)......
 0498 9304f0ff 83274900 03248900 9387f7ff  .....'I..$......
 04a8 63d80700 6f000008 13048406 638c9706  c...o.......c...
 04b8 0317c400 9387f7ff e31807fe b707ffff  ................
 04c8 93871700 23220406 23200400 23240400  ....#"..# ..#$..
 04d8 23220400 23280400 232a0400 232c0400  #"..#(..#*..#,..
 04e8 2326f400 13068000 93050000 1305c405  #&..............
 04f8 eff05fc0 23280402 232a0402 23220404  .._.#(..#*..#"..
 0508 23240404 8320c101 13050400 03248101  #$... .......$..
 0518 83244101 03290101 8329c100 13010102  .$A..)...)......
 0528 67800000 03240900 63060400 13090400  g....$..c.......
 0538 6ff05ff6 9305c01a 13850900 ef009036  o._............6
 0548 13040500 630c0502 93074000 1305c500  ....c.....@.....
 0558 23200400 2322f400 2324a400 1306001a  # ..#"..#$......
 0568 93050000 eff01fb9 23208900 13090400  ........# ......
 0578 6ff05ff2 eff01fd9 6ff01ff1 23200900  o._.....o...# ..
 0588 9307c000 23a0f900 6ff0dff7           ....#...o...    
Contents of section .text.__sinit:
 0594 83274503 63840700 67800000 37270000  .'E.c...g...7'..
 05a4 0327c76f 93074029 232af502 e31607fe  .'.o..@)#*......
 05b4 6ff09fd5                             o...            
Contents of section .text.__sfp_lock_acquire:
 05b8 67800000                             g...            
Contents of section .text.__sfp_lock_release:
 05bc 67800000                             g...            
Contents of section .text.__fp_lock_all:
 05c0 37260000 13060605 93050027 13050000  7&.........'....
 05d0 6f008001                             o...            
Contents of section .text.__fp_unlock_all:
 05d4 37260000 13060605 93054030 13050000  7&........@0....
 05e4 6f004000                             o.@.            
Contents of section .text._fwalk_sglue:
 05e8 130101fd 23202103 232e3101 232c4101  ....# !.#.1.#,A.
 05f8 232a5101 23286101 23267101 23261102  #*Q.#(a.#&q.#&..
 0608 23248102 23229102 130b0500 938b0500  #$..#"..........
 0618 930a0600 130a0000 93091000 1309f0ff  ................
 0628 83a44a00 03a48a00 9384f4ff 63c80402  ..J.........c...
 0638 8357c400 63fef900 8317e400 93050400  .W..c...........
 0648 13050b00 63862701 e7800b00 336aaa00  ....c.'.....3j..
 0658 9384f4ff 13048406 e39c24fd 83aa0a00  ..........$.....
 0668 e3900afc 8320c102 03248102 83244102  ..... ...$...$A.
 0678 03290102 8329c101 832a4101 032b0101  .)...)...*A..+..
 0688 832bc100 13050a00 032a8101 13010103  .+.......*......
 0698 67800000                             g...            
Contents of section .text.__sread:
 069c 130101ff 23248100 13840500 8395e500  ....#$..........
 06ac 23261100 ef00802f 63400502 83270405  #&...../c@...'..
 06bc 8320c100 b387a700 2328f404 03248100  . ......#(...$..
 06cc 13010101 67800000 8357c400 37f7ffff  ....g....W..7...
 06dc 1307f7ff b3f7e700 8320c100 2316f400  ......... ..#...
 06ec 03248100 13010101 67800000           .$......g...    
Contents of section .text.__seofread:
 06f8 13050000 67800000                    ....g...        
Contents of section .text.__swrite:
 0700 8397c500 130101fe 232c8100 232a9100  ........#,..#*..
 0710 23282101 23263101 232e1100 13f70710  #(!.#&1.#.......
 0720 13840500 13090600 93890600 93040500  ................
 0730 63100704 37f7ffff 1307f7ff b3f7e700  c...7...........
 0740 8315e400 2316f400 03248101 8320c101  ....#....$... ..
 0750 93860900 13060900 8329c100 03290101  .........)...)..
 0760 13850400 83244101 13010102 6f00802a  .....$A.....o..*
 0770 8395e500 93062000 13060000 ef00001c  ...... .........
 0780 8317c400 6ff01ffb                    ....o...        
Contents of section .text.__sseek:
 0788 130101ff 23248100 13840500 8395e500  ....#$..........
 0798 23261100 ef00001a 1307f0ff 8317c400  #&..............
 07a8 6302e502 37170000 b3e7e700 8320c100  c...7........ ..
 07b8 2328a404 2316f400 03248100 13010101  #(..#....$......
 07c8 67800000 37f7ffff 1307f7ff b3f7e700  g...7...........
 07d8 8320c100 2316f400 03248100 13010101  . ..#....$......
 07e8 67800000                             g...            
Contents of section .text.__sclose:
 07ec 8395e500 6f004000                    ....o.@.        
Contents of section .text._close_r:
 07f4 130101ff 23248100 23229100 13040500  ....#$..#"......
 0804 b7240000 13850500 23261100 23a00470  .$......#&..#..p
 0814 ef10c066 9307f0ff 630cf500 8320c100  ...f....c.... ..
 0824 03248100 83244100 13010101 67800000  .$...$A.....g...
 0834 83a70470 e38407fe 8320c100 2320f400  ...p..... ..# ..
 0844 03248100 83244100 13010101 67800000  .$...$A.....g...
Contents of section .text._reclaim_reent:
 0854 b7270000 83a78759 638ea70c 83254504  .'.....Yc....%E.
 0864 130101fe 232a9100 232e1100 232c8100  ....#*..#...#,..
 0874 93040500 63880504 23282101 23263101  ....c...#(!.#&1.
 0884 13090000 93090008 b3872501 03a40700  ..........%.....
 0894 630e0400 93050400 03240400 13850400  c........$......
 08a4 ef000051 e31804fe 83a54404 13094900  ...Q......D...I.
 08b4 e31c39fd 13850400 ef00804f 03290101  ..9........O.)..
 08c4 8329c100 83a58403 63860500 13850400  .)......c.......
 08d4 ef00004e 03a40404 630c0400 93050400  ...N....c.......
 08e4 03240400 13850400 ef00804c e31804fe  .$.........L....
 08f4 83a5c404 63860500 13850400 ef00404b  ....c.........@K
 0904 83a74403 638e0700 03248101 8320c101  ..D.c....$... ..
 0914 13850400 83244101 13010102 67800700  .....$A.....g...
 0924 8320c101 03248101 83244101 13010102  . ...$...$A.....
 0934 67800000 67800000                    g...g...        
Contents of section .text._lseek_r:
 093c 130101ff 13870500 23248100 23229100  ........#$..#"..
 094c 93050600 13040500 13860600 b7240000  .............$..
 095c 13050700 23261100 23a00470 ef10c058  ....#&..#..p...X
 096c 9307f0ff 630cf500 8320c100 03248100  ....c.... ...$..
 097c 83244100 13010101 67800000 83a70470  .$A.....g......p
 098c e38407fe 8320c100 2320f400 03248100  ..... ..# ...$..
 099c 83244100 13010101 67800000           .$A.....g...    
Contents of section .text._read_r:
 09a8 130101ff 13870500 23248100 23229100  ........#$..#"..
 09b8 93050600 13040500 13860600 b7240000  .............$..
 09c8 13050700 23261100 23a00470 ef104056  ....#&..#..p..@V
 09d8 9307f0ff 630cf500 8320c100 03248100  ....c.... ...$..
 09e8 83244100 13010101 67800000 83a70470  .$A.....g......p
 09f8 e38407fe 8320c100 2320f400 03248100  ..... ..# ...$..
 0a08 83244100 13010101 67800000           .$A.....g...    
Contents of section .text._write_r:
 0a14 130101ff 13870500 23248100 23229100  ........#$..#"..
 0a24 93050600 13040500 13860600 b7240000  .............$..
 0a34 13050700 23261100 23a00470 ef10805b  ....#&..#..p...[
 0a44 9307f0ff 630cf500 8320c100 03248100  ....c.... ...$..
 0a54 83244100 13010101 67800000 83a70470  .$A.....g......p
 0a64 e38407fe 8320c100 2320f400 03248100  ..... ..# ...$..
 0a74 83244100 13010101 67800000           .$A.....g...    
Contents of section .text.__libc_init_array:
 0a80 130101ff 23248100 23202101 93070000  ....#$..# !.....
 0a90 13070000 23261100 23229100 3389e740  ....#&..#"..3..@
 0aa0 6382e702 13592940 13040000 93040000  c....Y)@........
 0ab0 83270400 93841400 13044400 e7800700  .'........D.....
 0ac0 e3e824ff 93070000 13070000 3389e740  ..$.........3..@
 0ad0 13592940 6380e702 13040000 93040000  .Y)@c...........
 0ae0 83270400 93841400 13044400 e7800700  .'........D.....
 0af0 e3e824ff 8320c100 03248100 83244100  ..$.. ...$...$A.
 0b00 03290100 13010101 67800000           .)......g...    
Contents of section .text.startup.register_fini:
 0b0c 93070000 63880700 37250000 1305c5d8  ....c...7%......
 0b1c 6f000014 67800000                    o...g...        
Contents of section .text.__call_exitprocs:
 0b24 130101fd 232c4101 372a0000 23202103  ....#,A.7*..# !.
 0b34 03294a70 23261102 630c0906 232e3101  .)Jp#&..c...#.1.
 0b44 232a5101 23286101 23267101 23248102  #*Q.#(a.#&q.#$..
 0b54 23229102 23248101 130b0500 938b0500  #"..#$..........
 0b64 9309f0ff 930a1000 83244900 1384f4ff  .........$I.....
 0b74 63420402 93942400 b3049900 63840b04  cB....$.....c...
 0b84 83a74410 63807705 1304f4ff 9384c4ff  ..D.c.w.........
 0b94 e31834ff 03248102 83244102 8329c101  ..4..$...$A..)..
 0ba4 832a4101 032b0101 832bc100 032c8100  .*A..+...+...,..
 0bb4 8320c102 03290102 032a8101 13010103  . ...)...*......
 0bc4 67800000 83274900 83a64400 9387f7ff  g....'I...D.....
 0bd4 638a8706 23a20400 63860602 83278918  c...#...c....'..
 0be4 33978a00 032c4900 b377f700 63940702  3....,I..w..c...
 0bf4 e7800600 03274900 83274a70 631e8703  .....'I..'Jpc...
 0c04 639c2703 1304f4ff 9384c4ff e31834f7  c.'...........4.
 0c14 6ff05ff8 8327c918 83a54408 3377f700  o._..'....D.3w..
 0c24 63160702 13050b00 e7800600 03274900  c............'I.
 0c34 83274a70 e30687fd e38e07f4 13890700  .'Jp............
 0c44 6ff09ff2 23228900 6ff01ff9 13850500  o...#"..o.......
 0c54 e7800600 6ff01ffa                    ....o...        
Contents of section .text.atexit:
 0c5c 93050500 93060000 13060000 13050000  ................
 0c6c 6f104017                             o.@.            
Contents of section .text._malloc_trim_r:
 0c70 130101fe 23263101 b7290000 232c8100  ....#&1..)..#,..
 0c80 232a9100 23282101 23244101 232e1100  #*..#(!.#$A.#...
 0c90 138a0500 13090500 93890918 ef001043  ...............C
 0ca0 83a78900 37140000 1304f4fe 83a44700  ....7.........G.
 0cb0 b7170000 93f4c4ff 33848400 33044441  ........3...3.DA
 0cc0 1354c400 1304f4ff 1314c400 634ef400  .T..........cN..
 0cd0 93050000 13050900 ef104005 83a78900  ..........@.....
 0ce0 b3879700 6308f502 13050900 ef00503e  ....c.........P>
 0cf0 8320c101 03248101 83244101 03290101  . ...$...$A..)..
 0d00 8329c100 032a8100 13050000 13010102  .)...*..........
 0d10 67800000 b3058040 13050900 ef100001  g......@........
 0d20 9307f0ff 630af504 b7270000 93878770  ....c....'.....p
 0d30 83a68900 03a70700 b3848440 93e41400  ...........@....
 0d40 13050900 33078740 23a29600 23a0e700  ....3..@#...#...
 0d50 ef001038 8320c101 03248101 83244101  ...8. ...$...$A.
 0d60 03290101 8329c100 032a8100 13051000  .)...)...*......
 0d70 13010102 67800000 93050000 13050900  ....g...........
 0d80 ef00d07a 03a78900 9306f000 b307e540  ...z...........@
 0d90 e3dcf6f4 b7260000 03a6065a 93e71700  .....&.....Z....
 0da0 b7260000 3305c540 2322f700 23a4a670  .&..3..@#"..#..p
 0db0 6ff09ff3                             o...            
Contents of section .text._free_r:
 0db4 63860512 130101ff 23248100 23229100  c.......#$..#"..
 0dc4 13840500 93040500 23261100 ef00d02f  ........#&...../
 0dd4 0325c4ff 130784ff b7250000 9377e5ff  .%.......%...w..
 0de4 3306f700 93850518 83264600 03a88500  3........&F.....
 0df4 93781500 93f6c6ff 630cc818 2322d600  .x......c...#"..
 0e04 3308d600 03284800 13781800 639c0808  3....(H..x..c...
 0e14 032384ff 37250000 13058518 33076740  .#..7%......3.g@
 0e24 83288700 b3876700 638ea812 0323c700  .(....g.c....#..
 0e34 23a66800 23241301 6304081a 93e61700  #.h.#$..c.......
 0e44 2322d700 2320f600 9306f01f 63e4f60a  #"..# ......c...
 0e54 93f687ff 93868600 03a54500 b386d500  ..........E.....
 0e64 03a60600 13d85700 93071000 b3970701  ......W.........
 0e74 b3e7a700 138586ff 2324c700 2326a700  ........#$..#&..
 0e84 23a2f500 23a0e600 2326e600 03248100  #...#...#&...$..
 0e94 8320c100 13850400 83244100 13010101  . .......$A.....
 0ea4 6f00d022 631e0802 37250000 b387d700  o.."c...7%......
 0eb4 13058518 83268600 93e81700 3308f700  .....&......3...
 0ec4 6386a616 0326c600 23a6c600 2324d600  c....&..#...#$..
 0ed4 23221701 2320f800 6ff01ff7 67800000  #"..# ..o...g...
 0ee4 13651500 232ea4fe 2320f600 9306f01f  .e..#...# ......
 0ef4 e3f0f6f6 93d69700 13064000 6366d60e  ..........@.cf..
 0f04 93d66700 13859603 13153500 13868603  ..g.......5.....
 0f14 3385a500 83260500 130585ff 6318d500  3....&......c...
 0f24 6f008012 83a68600 6308d500 03a64600  o.......c.....F.
 0f34 1376c6ff e3e8c7fe 03a5c600 2326a700  .v..........#&..
 0f44 2324d700 03248100 2324e500 8320c100  #$...$..#$... ..
 0f54 13850400 83244100 23a6e600 13010101  .....$A.#.......
 0f64 6f00d016 6314080a 8325c600 03268600  o...c....%...&..
 0f74 b386f600 93e71600 2326b600 23a4c500  ........#&..#...
 0f84 2322f700 3307d700 2320d700 6ff01ff0  #"..3...# ..o...
 0f94 b386d700 63900802 032584ff 3307a740  ....c....%..3..@
 0fa4 8327c700 03268700 b386a600 2326f600  .'...&......#&..
 0fb4 23a4c700 b7270000 13e61600 83a7475a  #....'........GZ
 0fc4 2322c700 23a4e500 e3e2f6ec b7270000  #"..#........'..
 0fd4 83a58773 13850400 eff05fc9 6ff01feb  ...s......_.o...
 0fe4 b387d700 6ff01fed 13064001 6378d602  ....o.....@.cx..
 0ff4 13064005 6368d606 93d6c700 1385f606  ..@.ch..........
 1004 13153500 1386e606 6ff09ff0 93e61700  ..5.....o.......
 1014 2322d700 2320f600 6ff05fe7 1385c605  #"..# ..o._.....
 1024 13153500 1386b605 6ff09fee 23aae500  ..5.....o...#...
 1034 23a8e500 2326a700 2324a700 23221701  #...#&..#$..#"..
 1044 2320f800 6ff09fe4 03a84500 13562640  # ..o.....E..V&@
 1054 93071000 b397c700 b3e70701 23a2f500  ............#...
 1064 6ff0dfed 13064015 636cd600 93d6f700  o.....@.cl......
 1074 13858607 13153500 13867607 6ff05fe9  ......5...v.o._.
 1084 13064055 636cd600 93d62701 1385d607  ..@Ucl....'.....
 1094 13153500 1386c607 6ff09fe7 1305803f  ..5.....o......?
 10a4 1306e007 6ff0dfe6                    ....o...        
Contents of section .text._malloc_r:
 10ac 130101fd 232e3101 23261102 23248102  ....#.1.#&..#$..
 10bc 23229102 23202103 9387b500 13076001  #"..# !.......`.
 10cc 93090500 6360f708 93040001 63e4b420  ....c`......c.. 
 10dc ef00007f 93078001 93052000 37290000  .......... .7)..
 10ec 13090918 b307f900 03a44700 138787ff  ..........G.....
 10fc 6300e446 83274400 8326c400 03268400  c..F.'D..&...&..
 110c 93f7c7ff b307f400 03a74700 2326d600  ..........G.#&..
 111c 23a4c600 13671700 13850900 23a2e700  #....g......#...
 112c ef00407a 8320c102 13058400 03248102  ..@z. .......$..
 113c 83244102 03290102 8329c101 13010103  .$A..)...)......
 114c 67800000 93f487ff 63c60718 63e4b418  g.......c...c...
 115c ef000077 9307701f 63f69750 93d79400  ...w..p.c..P....
 116c 638e0718 13074000 636cf744 93d76400  c.....@.cl.D..d.
 117c 93859703 13888703 13963500 37290000  ..........5.7)..
 118c 13090918 3306c900 03244600 130686ff  ....3....$F.....
 119c 63088602 1305f000 6f004001 8326c400  c.......o.@..&..
 11ac 63560736 630ed600 13840600 83274400  cV.6c........'D.
 11bc 93f7c7ff 33879740 e352e5fe 93050800  ....3..@.R......
 11cc 03240901 37280000 13088818 6300042d  .$..7(......c..-
 11dc 83274400 9306f000 93f7c7ff 33879740  .'D.........3..@
 11ec 63c8e648 232a0901 23280901 635c0744  c..H#*..#(..c\.D
 11fc 1307f01f 03254900 6364f736 13f787ff  .....%I.cd.6....
 120c 13078700 3307e900 83260700 13d65700  ....3....&....W.
 121c 93071000 b397c700 3365f500 930787ff  ........3e......
 122c 2324d400 2326f400 2322a900 23208700  #$..#&..#"..# ..
 123c 23a68600 93d72540 13061000 3316f600  #.....%@....3...
 124c 6366c50c b377a600 63940702 13161600  cf...w..c.......
 125c 93f5c5ff b377a600 93854500 639a0700  .....w....E.c...
 126c 13161600 b377a600 93854500 e38a07fe  .....w....E.....
 127c 9308f000 13933500 33036900 13050300  ......5.3.i.....
 128c 8327c500 138e0500 630ef534 03a74700  .'......c..4..G.
 129c 13840700 83a7c700 1377c7ff b3069740  .........w.....@
 12ac 63ced834 e3c206fe 3307e400 83264700  c..4....3....&G.
 12bc 03268400 13850900 93e61600 2322d700  .&..........#"..
 12cc 2326f600 23a4c700 ef00c05f 13058400  #&..#......_....
 12dc 6f000001 9307c000 23a0f900 13050000  o.......#.......
 12ec 8320c102 03248102 83244102 03290102  . ...$...$A..)..
 12fc 8329c101 13010103 67800000 13060020  .)......g...... 
 130c 93050004 1308f003 6ff05fe7 03248900  ........o._..$..
 131c 23286101 83274400 13fbc7ff 63689b00  #(a..'D.....ch..
 132c 33079b40 9307f000 63c0e71a b7270000  3..@....c....'..
 133c 23229101 b72c0000 232a5101 03a70c5a  #"...,..#*Q....Z
 134c 83aa8773 232c4101 23267101 9307f0ff  ...s#,A.#&q.....
 135c b38a5401 330a6401 6302f73e b7170000  ..T.3.d.c..>....
 136c 9387f700 b38afa00 b7f7ffff b3fafa00  ................
 137c 93850a00 13850900 ef00901a 9307f0ff  ................
 138c 930b0500 6300f548 23248101 63644511  ....c..H#$..cdE.
 139c 372c0000 130c8c70 83250c00 b385ba00  7,.....p.%......
 13ac 2320bc00 13870500 6304aa46 83a60c5a  # ......c..F...Z
 13bc 9307f0ff 638cf646 b3874b41 b387e700  ....c..F..KA....
 13cc 2320fc00 93fc7b00 638a0c38 b38b9b41  # ....{.c..8...A
 13dc b7150000 938b8b00 93858500 b38a5b01  ..............[.
 13ec b3859541 b3855541 93954501 13da4501  ...A..UA..E...E.
 13fc 93050a00 13850900 ef009012 9307f0ff  ................
 140c 6306f546 33057541 b30a4501 03270c00  c..F3.uA..E..'..
 141c 23247901 93e71a00 b305ea00 23a2fb00  #$y.........#...
 142c 2320bc00 630e2403 9306f000 63fe6635  # ..c.$.....c.f5
 143c 03274400 93074bff 93f787ff 13771700  .'D...K......w..
 144c 3367f700 2322e400 13065000 3307f400  3g..#"....P.3...
 145c 2322c700 2324c700 63e6f62c 83a74b00  #"..#$..c..,..K.
 146c 37270000 83264773 63f4b600 232ab772  7'...&Gsc...#*.r
 147c 37270000 83260773 63f4b600 2328b772  7'...&.sc...#(.r
 148c 032c8100 13840b00 6f00c001 03254900  .,......o....%I.
 149c 6ff05fda 630c2435 03248900 032c8100  o._.c.$5.$...,..
 14ac 83274400 93f7c7ff 33879740 63e4972e  .'D.....3..@c...
 14bc 9307f000 63d0e72e 032a8101 832a4101  ....c....*...*A.
 14cc 832bc100 832c4100 93e71400 2322f400  .+...,A.....#"..
 14dc b3049400 23249900 13671700 13850900  ....#$...g......
 14ec 23a2e400 ef00003e 8320c102 13058400  #......>. ......
 14fc 03248102 032b0101 83244102 03290102  .$...+...$A..)..
 150c 8329c101 13010103 67800000 03268400  .)......g....&..
 151c b307f400 03a74700 2326d600 23a4c600  ......G.#&..#...
 152c 13671700 13850900 23a2e700 ef008039  .g......#......9
 153c 8320c102 13058400 03248102 83244102  . .......$...$A.
 154c 03290102 8329c101 13010103 67800000  .)...)......g...
 155c 03a4c700 93852500 e38487c6 6ff09fb9  ......%.....o...
 156c 13d79700 93064000 63f2e614 93064001  ......@.c.....@.
 157c 63e2e624 1306c705 13163600 9306b705  c..$......6.....
 158c 3306c900 03270600 130686ff 6318e600  3....'......c...
 159c 6f00401b 03278700 6308e600 83264700  o.@..'..c....&G.
 15ac 93f6c6ff e3e8d7fe 0326c700 2326c400  .........&..#&..
 15bc 2324e400 23248600 23268700 6ff09fc7  #$..#$..#&..o...
 15cc 13074001 637ef70e 13074005 6362f720  ..@.c~....@.cb. 
 15dc 93d7c400 9385f706 1388e706 13963500  ..............5.
 15ec 6ff0dfb9 130e1e00 93773e00 13058500  o........w>.....
 15fc 6386070e 8327c500 6ff01fc9 03268400  c....'..o....&..
 160c 93e51400 2322b400 2326f600 23a4c700  ....#"..#&..#...
 161c b3049400 232a9900 23289900 93e71600  ....#*..#(......
 162c 3307e400 23a60401 23a40401 23a2f400  3...#...#...#...
 163c 13850900 2320d700 ef00c028 13058400  ....# .....(....
 164c 6ff01fca b307f400 03a74700 13850900  o.........G.....
 165c 13671700 23a2e700 ef00c026 13058400  .g..#......&....
 166c 6ff01fc8 93d53400 93878400 6ff01fa7  o.....4.....o...
 167c 93e61400 2322d400 b3049400 232a9900  ....#"......#*..
 168c 23289900 93661700 b307f400 23a60401  #(...f......#...
 169c 23a40401 23a2d400 13850900 23a0e700  #...#.......#...
 16ac ef004022 13058400 6ff09fc3 13d76700  ..@"....o.....g.
 16bc 13069703 13163600 93068703 6ff05fec  ......6.....o._.
 16cc 9385c705 1388b705 13963500 6ff01fab  ..........5.o...
 16dc 83278300 9385f5ff 6390671e 93f73500  .'......c.g...5.
 16ec 130383ff e39607fe 03274900 9347f6ff  .........'I..G..
 16fc b3f7e700 2322f900 13161600 e3e8c7c0  ....#"..........
 170c e30606c0 3377f600 631a0700 13161600  ....3w..c.......
 171c 3377f600 130e4e00 e30a07fe 93050e00  3w....N.........
 172c 6ff05fb5 93058400 13850900 eff0cfe7  o._.............
 173c 83250c00 832b8900 6ff05fd2 938a0a01  .%...+..o._.....
 174c 6ff01fc3 93d62640 93071000 b397d700  o.....&@........
 175c 3365f500 2322a900 6ff05fe5 b3855b01  3e..#"..o._...[.
 176c b305b040 93954501 13da4501 93050a00  ...@..E...E.....
 177c 13850900 ef00c05a 9307f0ff e314f5c8  .......Z........
 178c 130a0000 6ff09fc8 032c8100 93071000  ....o....,......
 179c 23a2fb00 13850900 ef00c012 032a8101  #............*..
 17ac 832a4101 032b0101 832bc100 832c4100  .*A..+...+...,A.
 17bc 6ff0dfb2 93064005 63eee606 13d7c700  o.....@.c.......
 17cc 1306f706 13163600 9306e706 6ff05fdb  ......6.....o._.
 17dc 13074015 636ef706 93d7f400 93858707  ..@.cn..........
 17ec 13887707 13963500 6ff05f99 372c0000  ..w...5.o._.7,..
 17fc 130c8c70 03270c00 3387ea00 2320ec00  ...p.'..3...# ..
 180c 6ff0dfba 03248900 83274400 6ff09fc9  o....$...'D.o...
 181c 93174501 e39c07b8 832b8900 b3075b01  ..E......+....[.
 182c 93e71700 23a2fb00 6ff09fc3 23a07c5b  ....#...o...#.|[
 183c 6ff05fb9 93064015 63e4e604 13d7f700  o._...@.c.......
 184c 13068707 13163600 93067707 6ff05fd3  ......6...w.o._.
 185c 13074055 6364f704 93d72401 9385d707  ..@Ucd....$.....
 186c 1388c707 13963500 6ff05f91 938c8cff  ......5.o._.....
 187c b38a9a01 b38a7a41 130a0000 6ff01fb9  ......zA....o...
 188c 93064055 63e4e602 13d72701 1306d707  ..@Uc.....'.....
 189c 13163600 9306c707 6ff09fce 1306803f  ..6.....o......?
 18ac 9305f007 1308e007 6ff05f8d 1306803f  ........o._....?
 18bc 9306e007 6ff0dfcc 83274900 6ff0dfe3  ....o....'I.o...
Contents of section .text.__malloc_lock:
 18cc 67800000                             g...            
Contents of section .text.__malloc_unlock:
 18d0 67800000                             g...            
Contents of section .text._fclose_r:
 18d4 130101ff 23261100 23202101 63880502  ....#&..# !.c...
 18e4 23248100 23229100 13840500 93040500  #$..#"..........
 18f4 63060500 83274503 638c070c 8317c400  c....'E.c.......
 1904 63920702 03248100 83244100 8320c100  c....$...$A.. ..
 1914 13090000 13050900 03290100 13010101  .........)......
 1924 67800000 93050400 13850400 ef00c00b  g...............
 1934 8327c402 13090500 638a0700 8325c401  .'......c....%..
 1944 13850400 e7800700 63440506 8357c400  ........cD...W..
 1954 93f70708 63960706 83250403 638c0500  ....c....%..c...
 1964 93070404 6386f500 13850400 eff04fc4  ....c.........O.
 1974 23280402 83254404 63880500 13850400  #(...%D.c.......
 1984 eff00fc3 23220404 efe0dfc2 23160400  ....#"......#...
 1994 efe09fc2 8320c100 03248100 83244100  ..... ...$...$A.
 19a4 13050900 03290100 13010101 67800000  .....)......g...
 19b4 8357c400 1309f0ff 93f70708 e38e07f8  .W..............
 19c4 83250401 13850400 eff08fbe 6ff0dff8  .%..........o...
 19d4 efe01fbc 6ff09ff2                    ....o...        
Contents of section .text.fclose:
 19dc b7270000 93050500 03a58759 6ff0dfee  .'.........Yo...
Contents of section .text.__sflush_r:
 19ec 0397c500 130101fe 232c8100 23263101  ........#,..#&1.
 19fc 232e1100 93778700 13840500 93090500  #....w..........
 1a0c 63900712 b7170000 93870780 83a64500  c.............E.
 1a1c b367f700 2396f500 635ad018 03288402  .g..#...cZ...(..
 1a2c 6304080e 232a9100 93163701 83a40900  c...#*....7.....
 1a3c 23a00900 63c80618 8325c401 13060000  #...c....%......
 1a4c 93061000 13850900 e7000800 9307f0ff  ................
 1a5c 13060500 630af51a 8317c400 03288402  ....c........(..
 1a6c 93f74700 638e0700 03274400 83270403  ..G.c....'D..'..
 1a7c 3306e640 63860700 8327c403 3306f640  3..@c....'..3..@
 1a8c 8325c401 93060000 13850900 e7000800  .%..............
 1a9c 1307f0ff 8317c400 631ae512 83a60900  ........c.......
 1aac 1307d001 6360d718 37074020 13071700  ....c`..7.@ ....
 1abc 3357d700 13771700 63060716 03260401  3W...w..c....&..
 1acc 37f7ffff 1307f77f 33f7e700 2316e400  7.......3...#...
 1adc 23220400 2320c400 13973701 63540700  #"..# ....7.cT..
 1aec 63880610 83250403 23a09900 638a0510  c....%..#...c...
 1afc 93070404 6386f500 13850900 eff0cfaa  ....c...........
 1b0c 83244101 23280402 8320c101 03248101  .$A.#(... ...$..
 1b1c 8329c100 13050000 13010102 67800000  .)..........g...
 1b2c 23282101 03a90501 630a0908 232a9100  #(!.....c...#*..
 1b3c 83a40500 13773700 23a02501 b3842441  .....w7.#.%...$A
 1b4c 93070000 63140700 83a74501 2324f400  ....c.....E.#$..
 1b5c 63489000 6f004006 3309a900 635e9004  cH..o.@.3...c^..
 1b6c 83274402 8325c401 93860400 13060900  .'D..%..........
 1b7c 13850900 e7800700 b384a440 e34ea0fc  ...........@.N..
 1b8c 8317c400 03290101 93e70704 8320c101  .....)....... ..
 1b9c 2316f400 03248101 83244101 8329c100  #....$...$A..)..
 1bac 1305f0ff 13010102 67800000 83a6c503  ........g.......
 1bbc e346d0e6 6ff05ff5 83244101 03290101  .F..o._..$A..)..
 1bcc 6ff09ff4 03260405 6ff09fe9 83260401  o....&..o....&..
 1bdc 37f7ffff 1307f77f 33f7e700 2316e400  7.......3...#...
 1bec 23220400 2320d400 13973701 e35c07ee  #"..# ....7..\..
 1bfc 83250403 2328a404 23a09900 e39a05ee  .%..#(..#.......
 1c0c 83244101 6ff05ff0 83a70900 e38607e4  .$A.o._.........
 1c1c 1307d001 638ce700 13076001 6388e700  ....c.....`.c...
 1c2c 8317c400 93e70704 6ff05ff6 23a09900  ........o._.#...
 1c3c 83244101 6ff05fed                    .$A.o._.        
Contents of section .text._fflush_r:
 1c44 130101fe 232c8100 232e1100 13040500  ....#,..#.......
 1c54 63060500 83274503 638a0702 8397c500  c....'E.c.......
 1c64 639c0700 8320c101 03248101 13050000  c.... ...$......
 1c74 13010102 67800000 13050400 03248101  ....g........$..
 1c84 8320c101 13010102 6ff01fd6 2326b100  . ......o...#&..
 1c94 efe01f90 8325c100 6ff05ffc           .....%..o._.    
Contents of section .text.fflush:
 1ca0 63020506 b7270000 93050500 03a58759  c....'.........Y
 1cb0 63060500 83274503 638c0700 8397c500  c....'E.c.......
 1cc0 63960700 13050000 67800000 6ff01fd2  c.......g...o...
 1cd0 130101fe 2326b100 2324a100 232e1100  ....#&..#$..#...
 1ce0 efe05f8b 8325c100 03258100 8397c500  .._..%...%......
 1cf0 63980702 8320c101 13050000 13010102  c.... ..........
 1d00 67800000 37260000 b7250000 37250000  g...7&...%..7%..
 1d10 13060605 938545c4 13050506 6fe0df8c  ......E.....o...
 1d20 8320c101 13010102 6ff05fcc           . ......o._.    
Contents of section .text._sbrk_r:
 1d2c 130101ff 23248100 23229100 13040500  ....#$..#"......
 1d3c b7240000 13850500 23261100 23a00470  .$......#&..#..p
 1d4c ef000023 9307f0ff 630cf500 8320c100  ...#....c.... ..
 1d5c 03248100 83244100 13010101 67800000  .$...$A.....g...
 1d6c 83a70470 e38407fe 8320c100 2320f400  ...p..... ..# ..
 1d7c 03248100 83244100 13010101 67800000  .$...$A.....g...
Contents of section .text.__libc_fini_array:
 1d8c 130101ff 23248100 13040000 93070000  ....#$..........
 1d9c 3304f440 23229100 23261100 93542440  3..@#"..#&...T$@
 1dac 63800402 1304c4ff 3304f400 83270400  c.......3....'..
 1dbc 9384f4ff 1304c4ff e7800700 e39804fe  ................
 1dcc 8320c100 03248100 83244100 13010101  . ...$...$A.....
 1ddc 67800000                             g...            
Contents of section .text.__register_exitproc:
 1de0 37270000 83274770 638c0704 03a74700  7'...'Gpc.....G.
 1df0 1308f001 6342e808 13182700 63060502  ....cB....'.c...
 1e00 33830701 2324c308 83a88718 13061000  3...#$..........
 1e10 3316e600 b3e8c800 23a41719 2324d310  3.......#...#$..
 1e20 93062000 6308d502 13071700 23a2e700  .. .c.......#...
 1e30 b3870701 23a4b700 13050000 67800000  ....#.......g...
 1e40 b7270000 1388c773 23220771 9387c773  .'.....s#".q...s
 1e50 6ff0dff9 83a6c718 13071700 23a2e700  o...........#...
 1e60 b3e6c600 23a6d718 b3870701 23a4b700  ....#.......#...
 1e70 13050000 67800000 1305f0ff 67800000  ....g.......g...
Contents of section .text._close:
 1e80 130101ff 23261100 23248100 93089003  ....#&..#$......
 1e90 73000000 13040500 634c0500 8320c100  s.......cL... ..
 1ea0 13050400 03248100 13010101 67800000  .....$......g...
 1eb0 33048040 ef008018 23208500 1304f0ff  3..@....# ......
 1ec0 6ff0dffd                             o...            
Contents of section .text._exit:
 1ec4 9308d005 73000000 63440500 6f000000  ....s...cD..o...
 1ed4 130101ff 23248100 13040500 23261100  ....#$......#&..
 1ee4 33048040 ef004015 23208500 6f000000  3..@..@.# ..o...
Contents of section .text._lseek:
 1ef4 130101ff 23261100 23248100 9308e003  ....#&..#$......
 1f04 73000000 13040500 634c0500 8320c100  s.......cL... ..
 1f14 13050400 03248100 13010101 67800000  .....$......g...
 1f24 33048040 ef004011 23208500 1304f0ff  3..@..@.# ......
 1f34 6ff0dffd                             o...            
Contents of section .text._read:
 1f38 130101ff 23261100 23248100 9308f003  ....#&..#$......
 1f48 73000000 13040500 634c0500 8320c100  s.......cL... ..
 1f58 13050400 03248100 13010101 67800000  .....$......g...
 1f68 33048040 ef00000d 23208500 1304f0ff  3..@....# ......
 1f78 6ff0dffd                             o...            
Contents of section .text._sbrk:
 1f7c b7360000 03a7c68c 130101ff 23261100  .6..........#&..
 1f8c 93070500 63100702 9308600d 13050000  ....c.....`.....
 1f9c 73000000 1306f0ff 13070500 630ac502  s...........c...
 1fac 23a6a68c 3385e700 9308600d 73000000  #...3.....`.s...
 1fbc 03a7c68c b387e700 631cf500 8320c100  ........c.... ..
 1fcc 23a6a68c 13050700 13010101 67800000  #...........g...
 1fdc ef000006 8320c100 9307c000 2320f500  ..... ......# ..
 1fec 1305f0ff 13010101 67800000           ........g...    
Contents of section .text._write:
 1ff8 130101ff 23261100 23248100 93080004  ....#&..#$......
 2008 73000000 13040500 634c0500 8320c100  s.......cL... ..
 2018 13050400 03248100 13010101 67800000  .....$......g...
 2028 33048040 ef000001 23208500 1304f0ff  3..@....# ......
 2038 6ff0dffd                             o...            
Contents of section .text.__errno:
 203c b7270000 03a58759 67800000           .'.....Yg...    
Contents of section .eh_frame:
 2048 00000000                             ....            
Contents of section .data:
 2050 00000000 03000000 c4250000 00000000  .........%......
 2060 00000000 c4250000 2c260000 94260000  .....%..,&...&..
 2070 00000000 00000000 00000000 00000000  ................
 2080 00000000 00000000 00000000 00000000  ................
 2090 00000000 00000000 00000000 00000000  ................
 20a0 00000000 00000000 00000000 00000000  ................
 20b0 00000000 00000000 00000000 00000000  ................
 20c0 00000000 00000000 00000000 00000000  ................
 20d0 00000000 00000000 00000000 00000000  ................
 20e0 00000000 00000000 00000000 00000000  ................
 20f0 00000000 00000000 01000000 00000000  ................
 2100 0e33cdab 34126de6 ecde0500 0b000000  .3..4.m.........
 2110 00000000 00000000 00000000 00000000  ................
 2120 00000000 00000000 00000000 00000000  ................
 2130 00000000 00000000 00000000 00000000  ................
 2140 00000000 00000000 00000000 00000000  ................
 2150 00000000 00000000 00000000 00000000  ................
 2160 00000000 00000000 00000000 00000000  ................
 2170 00000000 00000000 00000000 00000000  ................
 2180 00000000 00000000 80210000 80210000  .........!...!..
 2190 88210000 88210000 90210000 90210000  .!...!...!...!..
 21a0 98210000 98210000 a0210000 a0210000  .!...!...!...!..
 21b0 a8210000 a8210000 b0210000 b0210000  .!...!...!...!..
 21c0 b8210000 b8210000 c0210000 c0210000  .!...!...!...!..
 21d0 c8210000 c8210000 d0210000 d0210000  .!...!...!...!..
 21e0 d8210000 d8210000 e0210000 e0210000  .!...!...!...!..
 21f0 e8210000 e8210000 f0210000 f0210000  .!...!...!...!..
 2200 f8210000 f8210000 00220000 00220000  .!...!..."..."..
 2210 08220000 08220000 10220000 10220000  ."..."..."..."..
 2220 18220000 18220000 20220000 20220000  ."...".. ".. "..
 2230 28220000 28220000 30220000 30220000  ("..("..0"..0"..
 2240 38220000 38220000 40220000 40220000  8"..8"..@"..@"..
 2250 48220000 48220000 50220000 50220000  H"..H"..P"..P"..
 2260 58220000 58220000 60220000 60220000  X"..X"..`"..`"..
 2270 68220000 68220000 70220000 70220000  h"..h"..p"..p"..
 2280 78220000 78220000 80220000 80220000  x"..x"..."..."..
 2290 88220000 88220000 90220000 90220000  ."..."..."..."..
 22a0 98220000 98220000 a0220000 a0220000  ."..."..."..."..
 22b0 a8220000 a8220000 b0220000 b0220000  ."..."..."..."..
 22c0 b8220000 b8220000 c0220000 c0220000  ."..."..."..."..
 22d0 c8220000 c8220000 d0220000 d0220000  ."..."..."..."..
 22e0 d8220000 d8220000 e0220000 e0220000  ."..."..."..."..
 22f0 e8220000 e8220000 f0220000 f0220000  ."..."..."..."..
 2300 f8220000 f8220000 00230000 00230000  ."..."...#...#..
 2310 08230000 08230000 10230000 10230000  .#...#...#...#..
 2320 18230000 18230000 20230000 20230000  .#...#.. #.. #..
 2330 28230000 28230000 30230000 30230000  (#..(#..0#..0#..
 2340 38230000 38230000 40230000 40230000  8#..8#..@#..@#..
 2350 48230000 48230000 50230000 50230000  H#..H#..P#..P#..
 2360 58230000 58230000 60230000 60230000  X#..X#..`#..`#..
 2370 68230000 68230000 70230000 70230000  h#..h#..p#..p#..
 2380 78230000 78230000 80230000 80230000  x#..x#...#...#..
 2390 88230000 88230000 90230000 90230000  .#...#...#...#..
 23a0 98230000 98230000 a0230000 a0230000  .#...#...#...#..
 23b0 a8230000 a8230000 b0230000 b0230000  .#...#...#...#..
 23c0 b8230000 b8230000 c0230000 c0230000  .#...#...#...#..
 23d0 c8230000 c8230000 d0230000 d0230000  .#...#...#...#..
 23e0 d8230000 d8230000 e0230000 e0230000  .#...#...#...#..
 23f0 e8230000 e8230000 f0230000 f0230000  .#...#...#...#..
 2400 f8230000 f8230000 00240000 00240000  .#...#...$...$..
 2410 08240000 08240000 10240000 10240000  .$...$...$...$..
 2420 18240000 18240000 20240000 20240000  .$...$.. $.. $..
 2430 28240000 28240000 30240000 30240000  ($..($..0$..0$..
 2440 38240000 38240000 40240000 40240000  8$..8$..@$..@$..
 2450 48240000 48240000 50240000 50240000  H$..H$..P$..P$..
 2460 58240000 58240000 60240000 60240000  X$..X$..`$..`$..
 2470 68240000 68240000 70240000 70240000  h$..h$..p$..p$..
 2480 78240000 78240000 80240000 80240000  x$..x$...$...$..
 2490 88240000 88240000 90240000 90240000  .$...$...$...$..
 24a0 98240000 98240000 a0240000 a0240000  .$...$...$...$..
 24b0 a8240000 a8240000 b0240000 b0240000  .$...$...$...$..
 24c0 b8240000 b8240000 c0240000 c0240000  .$...$...$...$..
 24d0 c8240000 c8240000 d0240000 d0240000  .$...$...$...$..
 24e0 d8240000 d8240000 e0240000 e0240000  .$...$...$...$..
 24f0 e8240000 e8240000 f0240000 f0240000  .$...$...$...$..
 2500 f8240000 f8240000 00250000 00250000  .$...$...%...%..
 2510 08250000 08250000 10250000 10250000  .%...%...%...%..
 2520 18250000 18250000 20250000 20250000  .%...%.. %.. %..
 2530 28250000 28250000 30250000 30250000  (%..(%..0%..0%..
 2540 38250000 38250000 40250000 40250000  8%..8%..@%..@%..
 2550 48250000 48250000 50250000 50250000  H%..H%..P%..P%..
 2560 58250000 58250000 60250000 60250000  X%..X%..`%..`%..
 2570 68250000 68250000 70250000 70250000  h%..h%..p%..p%..
 2580 78250000 78250000 00000000 00c00011  x%..x%..........
Contents of section .fini_array:
 2590 64000000                             d...            
Contents of section .init_array:
 2594 ac000000                             ....            
Contents of section .sdata._impure_ptr:
 2598 60200000                             ` ..            
Contents of section .init_array.00000:
 259c 0c0b0000                             ....            
Contents of section .sdata.__malloc_sbrk_base:
 25a0 ffffffff                             ....            
Contents of section .sdata.__malloc_trim_threshold:
 25a4 00000200                             ....            
Contents of section .riscv.attributes:
 0000 411b0000 00726973 63760001 11000000  A....riscv......
 0010 04100572 76333269 32703100           ...rv32i2p1.    
Contents of section .comment:
 0000 4743433a 20286730 34363936 64663039  GCC: (g04696df09
 0010 29203134 2e322e30 00474343 3a202847  ) 14.2.0.GCC: (G
 0020 4e552920 31342e32 2e3000             NU) 14.2.0.     
Contents of section .debug_line:
 0000 50000000 05000400 2e000000 010101fb  P...............
 0010 0e0d0001 01010100 00000100 00010101  ................
 0020 1f020000 00003c00 00000201 1f020f02  ......<.........
 0030 40000000 01400000 00010005 02000000  @....@..........
 0040 00180302 09080001 03050904 00010904  ................
 0050 00000101 d0010000 05000400 2e000000  ................
 0060 010101fb 0e0d0001 01010100 00000100  ................
 0070 00010101 1f020000 00003c00 00000201  ..........<.....
 0080 1f020f02 4b000000 014b0000 00010519  ....K....K......
 0090 000502d0 00000017 05020301 09000001  ................
 00a0 05070300 09000001 05190603 7f090000  ................
 00b0 01051703 01090400 01052000 02040106  .......... .....
 00c0 03000904 00010526 00020403 03000908  .......&........
 00d0 00010520 00020401 0300090c 00010501  ... ............
 00e0 06030109 08000109 08000001 01050d00  ................
 00f0 0502d801 00000309 01050203 01090000  ................
 0100 01030109 00000103 01090000 01050306  ................
 0110 030a0900 00010506 03760908 00010520  .........v..... 
 0120 00020401 037a0904 0001050d 03030904  .....z..........
 0130 00010506 03020904 00010520 00020401  ........... ....
 0140 037b0904 00010507 030a0904 00010502  .{..............
 0150 06037d09 04000105 03030109 00000105  ..}.............
 0160 06060300 09000001 05040603 01090400  ................
 0170 01050806 03000900 00010504 06030109  ................
 0180 04000105 07060300 09000001 05030603  ................
 0190 06090800 01050d06 03000900 00010503  ................
 01a0 06030109 04000105 02036f09 00000105  ..........o.....
 01b0 07030009 00000105 17060300 09000001  ................
 01c0 05200002 04010603 00090400 01052600  . ............&.
 01d0 02040303 00090800 01052000 02040103  .......... .....
 01e0 00090c00 01050203 07090800 01050303  ................
 01f0 01090000 01050606 03000900 00010504  ................
 0200 06030409 04000105 08060300 09000001  ................
 0210 05040603 01090400 01050706 03000900  ................
 0220 0001090c 00000101                    ........        
Contents of section .debug_line_str:
 0000 2f686f6d 652f6461 6e6e792f 70726f6a  /home/danny/proj
 0010 65637473 2f726973 63765f63 6f726573  ects/riscv_cores
 0020 2f6d756c 74692f70 726f6772 616d732f  /multi/programs/
 0030 6f747465 722d746f 6f6c7300 73726300  otter-tools.src.
 0040 696e6974 2e730073 72632f73 696d706c  init.s.src/simpl
 0050 652e6300                             e.c.            
Contents of section .debug_info:
 0000 20000000 05000104 00000000 01000000   ...............
 0010 00000000 00140000 00000b00 00004700  ..............G.
 0020 00000180 22010000 05000104 14000000  ...."...........
 0030 04620000 001d4700 00000000 00002700  .b....G.......'.
 0040 00000000 00005400 000005ca 00000001  ......T.........
 0050 020f3800 00000503 8c250000 06044500  ..8......%....E.
 0060 00000704 05696e74 00013e00 000008be  .....int..>.....
 0070 00000001 04166000 0000094a 00000001  ......`....J....
 0080 4a000000 0a040755 0000000b c5000000  J......U........
 0090 010a06d8 01000068 00000001 9cd80000  .......h........
 00a0 000c4e00 010b0f56 00000040 4b4c000d  ..N....V...@KL..
 00b0 6c656400 010c063e 0000000c 0000000e  led....>........
 00c0 b3000000 010d063e 0000001d 0000000f  .......>........
 00d0 d8000000 e4010000 18000000 01180310  ................
 00e0 e5000000 39000000 02ef0000 00180000  ....9...........
 00f0 0003f000 00000291 7c000000 11d30000  ........|.......
 0100 00010606 01fc0000 00126e00 0106164a  ..........n....J
 0110 00000013 14690001 07175b00 00000000  .....i....[.....
 0120 15d80000 00d00000 002c0000 00019c16  .........,......
 0130 e5000000 015a02ef 0000000c 00000003  .....Z..........
 0140 f0000000 02917c00 0000               ......|...      
Contents of section .debug_abbrev:
 0000 01110010 17110112 0f030e1b 0e250e13  .............%..
 0010 05000000 01350049 13000002 0b013113  .....5.I......1.
 0020 55170000 03340031 13021800 00041101  U....4.1........
 0030 250e130b 031f1b1f 55171101 10170000  %.......U.......
 0040 05340003 0e3a0b3b 0b390b49 133f1902  .4...:.;.9.I.?..
 0050 18000006 0f000b0b 49130000 0724000b  ........I....$..
 0060 0b3e0b03 08000008 1600030e 3a0b3b0b  .>..........:.;.
 0070 390b4913 00000926 00491300 000a2400  9.I....&.I....$.
 0080 0b0b3e0b 030e0000 0b2e013f 19030e3a  ..>........?...:
 0090 0b3b0b39 0b110112 0640187a 19011300  .;.9.....@.z....
 00a0 000c3400 03083a0b 3b0b390b 49131c06  ..4...:.;.9.I...
 00b0 00000d34 0003083a 0b3b0b39 0b491302  ...4...:.;.9.I..
 00c0 1700000e 3400030e 3a0b3b0b 390b4913  ....4...:.;.9.I.
 00d0 02170000 0f1d0131 13520155 17580b59  .......1.R.U.X.Y
 00e0 0b570b00 00100500 31130217 0000112e  .W......1.......
 00f0 013f1903 0e3a0b3b 0b390b27 19200b01  .?...:.;.9.'. ..
 0100 13000012 05000308 3a0b3b0b 390b4913  ........:.;.9.I.
 0110 0000130b 01000014 34000308 3a0b3b0b  ........4...:.;.
 0120 390b4913 0000152e 01311311 01120640  9.I......1.....@
 0130 187a1900 00160500 31130218 000000    .z......1...... 
Contents of section .debug_aranges:
 0000 1c000000 02000000 00000400 00000000  ................
 0010 00000000 10000000 00000000 00000000  ................
 0020 24000000 02002400 00000400 00000000  $.....$.........
 0030 d0000000 2c000000 d8010000 68000000  ....,.......h...
 0040 00000000 00000000                    ........        
Contents of section .debug_str:
 0000 7372632f 696e6974 2e73002f 686f6d65  src/init.s./home
 0010 2f64616e 6e792f70 726f6a65 6374732f  /danny/projects/
 0020 72697363 765f636f 7265732f 6d756c74  riscv_cores/mult
 0030 692f7072 6f677261 6d732f6f 74746572  i/programs/otter
 0040 2d746f6f 6c730047 4e552041 5320322e  -tools.GNU AS 2.
 0050 34332e31 00756e73 69676e65 6420696e  43.1.unsigned in
 0060 7400474e 55204331 37203134 2e322e30  t.GNU C17 14.2.0
 0070 202d6d61 62693d69 6c703332 202d6d74   -mabi=ilp32 -mt
 0080 756e653d 726f636b 6574202d 6d697361  une=rocket -misa
 0090 2d737065 633d3230 31393132 3133202d  -spec=20191213 -
 00a0 6d617263 683d7276 33326920 2d67202d  march=rv32i -g -
 00b0 4f330073 68696674 5f6c6566 74007369  O3.shift_left.si
 00c0 7a655f74 006d6169 6e004c45 445f4144  ze_t.main.LED_AD
 00d0 44520064 656c6179 5f636300           DR.delay_cc.    
Contents of section .debug_loclists:
 0000 43000000 05000400 00000000 06d80100  C...............
 0010 00040020 02319f04 2068015c 0006d801  ... .1.. h.\....
 0020 00000400 2002319f 04202401 5d042430  .... .1.. $.].$0
 0030 02319f04 3060015d 00080c02 00002006  .1..0`.]...... .
 0040 0c404b4c 009f00                      .@KL...         
Contents of section .debug_rnglists:
 0000 30000000 05000400 00000000 05d00000  0...............
 0010 00040000 04042400 05e40100 00040004  ......$.........
 0020 040c1004 28480007 d0000000 2c07d801  ....(H......,...
 0030 00006800                             ..h.            
Contents of section .debug_frame:
 0000 0c000000 ffffffff 0300017c 010c0200  ...........|....
 0010 14000000 00000000 d0000000 2c000000  ............,...
 0020 440e1064 0e000000 10000000 00000000  D..d............
 0030 d8010000 68000000 540e1000           ....h...T...    

Disassembly of section .text.init:

00000000 <entry>:
# This code is executed first.

.section .text.init
entry:

    la    sp, __sp   # set up the stack pointer, using a constant defined in the linker script.
   0:	auipc	sp,0x10
   4:	mv	sp,sp
  
    call _start		# use this if using C runtime, std c library
   8:	jal	10 <_start>

0000000c <end>:
  
 #   call  main          # call the main function if barebones assembly/C

end:
    j end               # loop when finished if there is no environment to return to.
   c:	j	c <end>

Disassembly of section .text:

00000010 <_start>:
  10:	auipc	gp,0x1
  14:	addi	gp,gp,-1592 # 9d8 <__global_pointer$>
  18:	auipc	a0,0x2
  1c:	addi	a0,a0,1424 # 25a8 <completed.1>
  20:	auipc	a2,0x2
  24:	addi	a2,a2,1444 # 25c4 <__sf>
  28:	sub	a2,a2,a0
  2c:	li	a1,0
  30:	jal	fc <memset>
  34:	auipc	a0,0x1
  38:	addi	a0,a0,-984 # c5c <atexit>
  3c:	beqz	a0,4c <_start+0x3c>
  40:	auipc	a0,0x2
  44:	addi	a0,a0,-692 # 1d8c <__libc_fini_array>
  48:	jal	c5c <atexit>
  4c:	jal	a80 <__libc_init_array>
  50:	lw	a0,0(sp) # 10000 <__sp>
  54:	addi	a1,sp,4
  58:	li	a2,0
  5c:	jal	1d8 <main>
  60:	j	240 <exit>

00000064 <__do_global_dtors_aux>:
  64:	addi	sp,sp,-16
  68:	sw	s0,8(sp)
  6c:	lui	s0,0x2
  70:	lbu	a5,1448(s0) # 25a8 <completed.1>
  74:	sw	ra,12(sp)
  78:	bnez	a5,9c <__do_global_dtors_aux+0x38>
  7c:	li	a5,0
  80:	beqz	a5,94 <__do_global_dtors_aux+0x30>
  84:	lui	a0,0x2
  88:	addi	a0,a0,72 # 2048 <__EH_FRAME_BEGIN__>
  8c:	auipc	ra,0x0
  90:	jalr	zero # 0 <entry>
  94:	li	a5,1
  98:	sb	a5,1448(s0)
  9c:	lw	ra,12(sp)
  a0:	lw	s0,8(sp)
  a4:	addi	sp,sp,16
  a8:	ret

000000ac <frame_dummy>:
  ac:	li	a5,0
  b0:	beqz	a5,cc <frame_dummy+0x20>
  b4:	lui	a1,0x2
  b8:	lui	a0,0x2
  bc:	addi	a1,a1,1452 # 25ac <object.0>
  c0:	addi	a0,a0,72 # 2048 <__EH_FRAME_BEGIN__>
  c4:	auipc	t1,0x0
  c8:	jr	zero # 0 <entry>
  cc:	ret

000000d0 <delay_cc>:

volatile int* LED_ADDR = (int*) 0x1100C000;

typedef unsigned int size_t;

void delay_cc(size_t n) {
  d0:	addi	sp,sp,-16
	for (volatile size_t i = 0; i < n; i++);
  d4:	sw	zero,12(sp)
  d8:	lw	a5,12(sp)
  dc:	bgeu	a5,a0,f4 <delay_cc+0x24>
  e0:	lw	a5,12(sp)
  e4:	addi	a5,a5,1
  e8:	sw	a5,12(sp)
  ec:	lw	a5,12(sp)
  f0:	bltu	a5,a0,e0 <delay_cc+0x10>
}
  f4:	addi	sp,sp,16
  f8:	ret

000000fc <memset>:
  fc:	li	t1,15
 100:	mv	a4,a0
 104:	bgeu	t1,a2,140 <memset+0x44>
 108:	andi	a5,a4,15
 10c:	bnez	a5,1ac <memset+0xb0>
 110:	bnez	a1,194 <memset+0x98>
 114:	andi	a3,a2,-16
 118:	andi	a2,a2,15
 11c:	add	a3,a3,a4
 120:	sw	a1,0(a4)
 124:	sw	a1,4(a4)
 128:	sw	a1,8(a4)
 12c:	sw	a1,12(a4)
 130:	addi	a4,a4,16
 134:	bltu	a4,a3,120 <memset+0x24>
 138:	bnez	a2,140 <memset+0x44>
 13c:	ret
 140:	sub	a3,t1,a2
 144:	slli	a3,a3,0x2
 148:	auipc	t0,0x0
 14c:	add	a3,a3,t0
 150:	jr	12(a3)
 154:	sb	a1,14(a4)
 158:	sb	a1,13(a4)
 15c:	sb	a1,12(a4)
 160:	sb	a1,11(a4)
 164:	sb	a1,10(a4)
 168:	sb	a1,9(a4)
 16c:	sb	a1,8(a4)
 170:	sb	a1,7(a4)
 174:	sb	a1,6(a4)
 178:	sb	a1,5(a4)
 17c:	sb	a1,4(a4)
 180:	sb	a1,3(a4)
 184:	sb	a1,2(a4)
 188:	sb	a1,1(a4)
 18c:	sb	a1,0(a4)
 190:	ret
 194:	zext.b	a1,a1
 198:	slli	a3,a1,0x8
 19c:	or	a1,a1,a3
 1a0:	slli	a3,a1,0x10
 1a4:	or	a1,a1,a3
 1a8:	j	114 <memset+0x18>
 1ac:	slli	a3,a5,0x2
 1b0:	auipc	t0,0x0
 1b4:	add	a3,a3,t0
 1b8:	mv	t0,ra
 1bc:	jalr	-96(a3)
 1c0:	mv	ra,t0
 1c4:	addi	a5,a5,-16
 1c8:	sub	a4,a4,a5
 1cc:	add	a2,a2,a5
 1d0:	bgeu	t1,a2,140 <memset+0x44>
 1d4:	j	110 <memset+0x14>

Disassembly of section .text.startup:

000001d8 <main>:
		} else {
			led = led >> 1;
			if (led == 0x1) shift_left = 1;
		}

		*LED_ADDR = led;
 1d8:	lui	a5,0x2
 1dc:	lw	a1,1420(a5) # 258c <LED_ADDR>
	int shift_left = 1;
 1e0:	li	a3,1
	for (volatile size_t i = 0; i < n; i++);
 1e4:	lui	a4,0x4c5
void main() {
 1e8:	addi	sp,sp,-16
	int led = 1;
 1ec:	mv	a2,a3
	for (volatile size_t i = 0; i < n; i++);
 1f0:	addi	a4,a4,-1217 # 4c4b3f <__sp+0x4b4b3f>
			if (led == 0x8000) shift_left = 0;
 1f4:	lui	a0,0xffff8
		if (shift_left) {
 1f8:	beqz	a3,230 <main+0x58>
			led = led << 1;
 1fc:	slli	a2,a2,0x1
			if (led == 0x8000) shift_left = 0;
 200:	add	a3,a2,a0
 204:	snez	a3,a3
		*LED_ADDR = led;
 208:	sw	a2,0(a1)
	for (volatile size_t i = 0; i < n; i++);
 20c:	sw	zero,12(sp)
 210:	lw	a5,12(sp)
 214:	bltu	a4,a5,1f8 <main+0x20>
 218:	lw	a5,12(sp)
 21c:	addi	a5,a5,1
 220:	sw	a5,12(sp)
 224:	lw	a5,12(sp)
 228:	bgeu	a4,a5,218 <main+0x40>
		if (shift_left) {
 22c:	bnez	a3,1fc <main+0x24>
			led = led >> 1;
 230:	srai	a2,a2,0x1
			if (led == 0x1) shift_left = 1;
 234:	addi	a3,a2,-1
 238:	seqz	a3,a3
 23c:	j	208 <main+0x30>

Disassembly of section .text.exit:

00000240 <exit>:
 240:	addi	sp,sp,-16
 244:	li	a1,0
 248:	sw	s0,8(sp)
 24c:	sw	ra,12(sp)
 250:	mv	s0,a0
 254:	jal	b24 <__call_exitprocs>
 258:	lui	a5,0x2
 25c:	lw	a5,1788(a5) # 26fc <__stdio_exit_handler>
 260:	beqz	a5,268 <exit+0x28>
 264:	jalr	a5
 268:	mv	a0,s0
 26c:	jal	1ec4 <_exit>

Disassembly of section .text.__fp_lock:

00000270 <__fp_lock>:
 270:	li	a0,0
 274:	ret

Disassembly of section .text.stdio_exit_handler:

00000278 <stdio_exit_handler>:
 278:	lui	a2,0x2
 27c:	lui	a1,0x2
 280:	lui	a0,0x2
 284:	addi	a2,a2,80 # 2050 <__sglue>
 288:	addi	a1,a1,-1836 # 18d4 <_fclose_r>
 28c:	addi	a0,a0,96 # 2060 <_impure_data>
 290:	j	5e8 <_fwalk_sglue>

Disassembly of section .text.cleanup_stdio:

00000294 <cleanup_stdio>:
 294:	lw	a1,4(a0)
 298:	addi	sp,sp,-16
 29c:	lui	a5,0x2
 2a0:	sw	s0,8(sp)
 2a4:	sw	ra,12(sp)
 2a8:	addi	a5,a5,1476 # 25c4 <__sf>
 2ac:	mv	s0,a0
 2b0:	beq	a1,a5,2b8 <cleanup_stdio+0x24>
 2b4:	jal	18d4 <_fclose_r>
 2b8:	lw	a1,8(s0)
 2bc:	lui	a5,0x2
 2c0:	addi	a5,a5,1580 # 262c <__sf+0x68>
 2c4:	beq	a1,a5,2d0 <cleanup_stdio+0x3c>
 2c8:	mv	a0,s0
 2cc:	jal	18d4 <_fclose_r>
 2d0:	lw	a1,12(s0)
 2d4:	lui	a5,0x2
 2d8:	addi	a5,a5,1684 # 2694 <__sf+0xd0>
 2dc:	beq	a1,a5,2f4 <cleanup_stdio+0x60>
 2e0:	mv	a0,s0
 2e4:	lw	s0,8(sp)
 2e8:	lw	ra,12(sp)
 2ec:	addi	sp,sp,16
 2f0:	j	18d4 <_fclose_r>
 2f4:	lw	ra,12(sp)
 2f8:	lw	s0,8(sp)
 2fc:	addi	sp,sp,16
 300:	ret

Disassembly of section .text.__fp_unlock:

00000304 <__fp_unlock>:
 304:	li	a0,0
 308:	ret

Disassembly of section .text.global_stdio_init.part.0:

0000030c <global_stdio_init.part.0>:
 30c:	addi	sp,sp,-32
 310:	sw	s0,24(sp)
 314:	lui	s0,0x2
 318:	lui	a0,0x2
 31c:	addi	s0,s0,1476 # 25c4 <__sf>
 320:	sw	ra,28(sp)
 324:	sw	s1,20(sp)
 328:	sw	s2,16(sp)
 32c:	sw	s3,12(sp)
 330:	sw	s4,8(sp)
 334:	lui	a3,0x2
 338:	li	a4,4
 33c:	li	a5,632
 340:	li	a2,8
 344:	li	a1,0
 348:	addi	a0,a0,1568 # 2620 <__sf+0x5c>
 34c:	sw	a5,1788(a3) # 26fc <__stdio_exit_handler>
 350:	sw	a4,12(s0)
 354:	sw	zero,0(s0)
 358:	sw	zero,4(s0)
 35c:	sw	zero,8(s0)
 360:	sw	zero,100(s0)
 364:	sw	zero,16(s0)
 368:	sw	zero,20(s0)
 36c:	sw	zero,24(s0)
 370:	jal	fc <memset>
 374:	lui	a5,0x10
 378:	lui	a0,0x2
 37c:	li	s4,1692
 380:	li	s3,1792
 384:	li	s2,1928
 388:	li	s1,2028
 38c:	addi	a5,a5,9 # 10009 <__sp+0x9>
 390:	li	a2,8
 394:	li	a1,0
 398:	addi	a0,a0,1672 # 2688 <__sf+0xc4>
 39c:	sw	a5,116(s0)
 3a0:	sw	s4,32(s0)
 3a4:	sw	s3,36(s0)
 3a8:	sw	s2,40(s0)
 3ac:	sw	s1,44(s0)
 3b0:	sw	s0,28(s0)
 3b4:	sw	zero,104(s0)
 3b8:	sw	zero,108(s0)
 3bc:	sw	zero,112(s0)
 3c0:	sw	zero,204(s0)
 3c4:	sw	zero,120(s0)
 3c8:	sw	zero,124(s0)
 3cc:	sw	zero,128(s0)
 3d0:	jal	fc <memset>
 3d4:	lui	a4,0x2
 3d8:	lui	a5,0x20
 3dc:	lui	a0,0x2
 3e0:	addi	a5,a5,18 # 20012 <__sp+0x10012>
 3e4:	addi	a4,a4,1580 # 262c <__sf+0x68>
 3e8:	addi	a0,a0,1776 # 26f0 <__sf+0x12c>
 3ec:	li	a2,8
 3f0:	li	a1,0
 3f4:	sw	s4,136(s0)
 3f8:	sw	s3,140(s0)
 3fc:	sw	s2,144(s0)
 400:	sw	s1,148(s0)
 404:	sw	a5,220(s0)
 408:	sw	zero,208(s0)
 40c:	sw	zero,212(s0)
 410:	sw	zero,216(s0)
 414:	sw	zero,308(s0)
 418:	sw	zero,224(s0)
 41c:	sw	zero,228(s0)
 420:	sw	zero,232(s0)
 424:	sw	a4,132(s0)
 428:	jal	fc <memset>
 42c:	lui	a5,0x2
 430:	addi	a5,a5,1684 # 2694 <__sf+0xd0>
 434:	sw	s4,240(s0)
 438:	sw	s3,244(s0)
 43c:	sw	s2,248(s0)
 440:	sw	s1,252(s0)
 444:	lw	ra,28(sp)
 448:	sw	a5,236(s0)
 44c:	lw	s0,24(sp)
 450:	lw	s1,20(sp)
 454:	lw	s2,16(sp)
 458:	lw	s3,12(sp)
 45c:	lw	s4,8(sp)
 460:	addi	sp,sp,32
 464:	ret

Disassembly of section .text.__sfp:

00000468 <__sfp>:
 468:	lui	a5,0x2
 46c:	lw	a5,1788(a5) # 26fc <__stdio_exit_handler>
 470:	addi	sp,sp,-32
 474:	sw	s3,12(sp)
 478:	sw	ra,28(sp)
 47c:	sw	s0,24(sp)
 480:	sw	s1,20(sp)
 484:	sw	s2,16(sp)
 488:	mv	s3,a0
 48c:	beqz	a5,57c <__sfp+0x114>
 490:	lui	s2,0x2
 494:	addi	s2,s2,80 # 2050 <__sglue>
 498:	li	s1,-1
 49c:	lw	a5,4(s2)
 4a0:	lw	s0,8(s2)
 4a4:	addi	a5,a5,-1
 4a8:	bgez	a5,4b8 <__sfp+0x50>
 4ac:	j	52c <__sfp+0xc4>
 4b0:	addi	s0,s0,104
 4b4:	beq	a5,s1,52c <__sfp+0xc4>
 4b8:	lh	a4,12(s0)
 4bc:	addi	a5,a5,-1
 4c0:	bnez	a4,4b0 <__sfp+0x48>
 4c4:	lui	a5,0xffff0
 4c8:	addi	a5,a5,1 # ffff0001 <__sp+0xfffe0001>
 4cc:	sw	zero,100(s0)
 4d0:	sw	zero,0(s0)
 4d4:	sw	zero,8(s0)
 4d8:	sw	zero,4(s0)
 4dc:	sw	zero,16(s0)
 4e0:	sw	zero,20(s0)
 4e4:	sw	zero,24(s0)
 4e8:	sw	a5,12(s0)
 4ec:	li	a2,8
 4f0:	li	a1,0
 4f4:	addi	a0,s0,92
 4f8:	jal	fc <memset>
 4fc:	sw	zero,48(s0)
 500:	sw	zero,52(s0)
 504:	sw	zero,68(s0)
 508:	sw	zero,72(s0)
 50c:	lw	ra,28(sp)
 510:	mv	a0,s0
 514:	lw	s0,24(sp)
 518:	lw	s1,20(sp)
 51c:	lw	s2,16(sp)
 520:	lw	s3,12(sp)
 524:	addi	sp,sp,32
 528:	ret
 52c:	lw	s0,0(s2)
 530:	beqz	s0,53c <__sfp+0xd4>
 534:	mv	s2,s0
 538:	j	49c <__sfp+0x34>
 53c:	li	a1,428
 540:	mv	a0,s3
 544:	jal	10ac <_malloc_r>
 548:	mv	s0,a0
 54c:	beqz	a0,584 <__sfp+0x11c>
 550:	li	a5,4
 554:	addi	a0,a0,12
 558:	sw	zero,0(s0)
 55c:	sw	a5,4(s0)
 560:	sw	a0,8(s0)
 564:	li	a2,416
 568:	li	a1,0
 56c:	jal	fc <memset>
 570:	sw	s0,0(s2)
 574:	mv	s2,s0
 578:	j	49c <__sfp+0x34>
 57c:	jal	30c <global_stdio_init.part.0>
 580:	j	490 <__sfp+0x28>
 584:	sw	zero,0(s2)
 588:	li	a5,12
 58c:	sw	a5,0(s3)
 590:	j	50c <__sfp+0xa4>

Disassembly of section .text.__sinit:

00000594 <__sinit>:
 594:	lw	a5,52(a0)
 598:	beqz	a5,5a0 <__sinit+0xc>
 59c:	ret
 5a0:	lui	a4,0x2
 5a4:	lw	a4,1788(a4) # 26fc <__stdio_exit_handler>
 5a8:	li	a5,660
 5ac:	sw	a5,52(a0)
 5b0:	bnez	a4,59c <__sinit+0x8>
 5b4:	j	30c <global_stdio_init.part.0>

Disassembly of section .text.__sfp_lock_acquire:

000005b8 <__sfp_lock_acquire>:
 5b8:	ret

Disassembly of section .text.__sfp_lock_release:

000005bc <__sfp_lock_release>:
 5bc:	ret

Disassembly of section .text.__fp_lock_all:

000005c0 <__fp_lock_all>:
 5c0:	lui	a2,0x2
 5c4:	addi	a2,a2,80 # 2050 <__sglue>
 5c8:	li	a1,624
 5cc:	li	a0,0
 5d0:	j	5e8 <_fwalk_sglue>

Disassembly of section .text.__fp_unlock_all:

000005d4 <__fp_unlock_all>:
 5d4:	lui	a2,0x2
 5d8:	addi	a2,a2,80 # 2050 <__sglue>
 5dc:	li	a1,772
 5e0:	li	a0,0
 5e4:	j	5e8 <_fwalk_sglue>

Disassembly of section .text._fwalk_sglue:

000005e8 <_fwalk_sglue>:
 5e8:	addi	sp,sp,-48
 5ec:	sw	s2,32(sp)
 5f0:	sw	s3,28(sp)
 5f4:	sw	s4,24(sp)
 5f8:	sw	s5,20(sp)
 5fc:	sw	s6,16(sp)
 600:	sw	s7,12(sp)
 604:	sw	ra,44(sp)
 608:	sw	s0,40(sp)
 60c:	sw	s1,36(sp)
 610:	mv	s6,a0
 614:	mv	s7,a1
 618:	mv	s5,a2
 61c:	li	s4,0
 620:	li	s3,1
 624:	li	s2,-1
 628:	lw	s1,4(s5)
 62c:	lw	s0,8(s5)
 630:	addi	s1,s1,-1
 634:	bltz	s1,664 <_fwalk_sglue+0x7c>
 638:	lhu	a5,12(s0)
 63c:	bgeu	s3,a5,658 <_fwalk_sglue+0x70>
 640:	lh	a5,14(s0)
 644:	mv	a1,s0
 648:	mv	a0,s6
 64c:	beq	a5,s2,658 <_fwalk_sglue+0x70>
 650:	jalr	s7
 654:	or	s4,s4,a0
 658:	addi	s1,s1,-1
 65c:	addi	s0,s0,104
 660:	bne	s1,s2,638 <_fwalk_sglue+0x50>
 664:	lw	s5,0(s5)
 668:	bnez	s5,628 <_fwalk_sglue+0x40>
 66c:	lw	ra,44(sp)
 670:	lw	s0,40(sp)
 674:	lw	s1,36(sp)
 678:	lw	s2,32(sp)
 67c:	lw	s3,28(sp)
 680:	lw	s5,20(sp)
 684:	lw	s6,16(sp)
 688:	lw	s7,12(sp)
 68c:	mv	a0,s4
 690:	lw	s4,24(sp)
 694:	addi	sp,sp,48
 698:	ret

Disassembly of section .text.__sread:

0000069c <__sread>:
 69c:	addi	sp,sp,-16
 6a0:	sw	s0,8(sp)
 6a4:	mv	s0,a1
 6a8:	lh	a1,14(a1)
 6ac:	sw	ra,12(sp)
 6b0:	jal	9a8 <_read_r>
 6b4:	bltz	a0,6d4 <__sread+0x38>
 6b8:	lw	a5,80(s0)
 6bc:	lw	ra,12(sp)
 6c0:	add	a5,a5,a0
 6c4:	sw	a5,80(s0)
 6c8:	lw	s0,8(sp)
 6cc:	addi	sp,sp,16
 6d0:	ret
 6d4:	lhu	a5,12(s0)
 6d8:	lui	a4,0xfffff
 6dc:	addi	a4,a4,-1 # ffffefff <__sp+0xfffeefff>
 6e0:	and	a5,a5,a4
 6e4:	lw	ra,12(sp)
 6e8:	sh	a5,12(s0)
 6ec:	lw	s0,8(sp)
 6f0:	addi	sp,sp,16
 6f4:	ret

Disassembly of section .text.__seofread:

000006f8 <__seofread>:
 6f8:	li	a0,0
 6fc:	ret

Disassembly of section .text.__swrite:

00000700 <__swrite>:
 700:	lh	a5,12(a1)
 704:	addi	sp,sp,-32
 708:	sw	s0,24(sp)
 70c:	sw	s1,20(sp)
 710:	sw	s2,16(sp)
 714:	sw	s3,12(sp)
 718:	sw	ra,28(sp)
 71c:	andi	a4,a5,256
 720:	mv	s0,a1
 724:	mv	s2,a2
 728:	mv	s3,a3
 72c:	mv	s1,a0
 730:	bnez	a4,770 <__swrite+0x70>
 734:	lui	a4,0xfffff
 738:	addi	a4,a4,-1 # ffffefff <__sp+0xfffeefff>
 73c:	and	a5,a5,a4
 740:	lh	a1,14(s0)
 744:	sh	a5,12(s0)
 748:	lw	s0,24(sp)
 74c:	lw	ra,28(sp)
 750:	mv	a3,s3
 754:	mv	a2,s2
 758:	lw	s3,12(sp)
 75c:	lw	s2,16(sp)
 760:	mv	a0,s1
 764:	lw	s1,20(sp)
 768:	addi	sp,sp,32
 76c:	j	a14 <_write_r>
 770:	lh	a1,14(a1)
 774:	li	a3,2
 778:	li	a2,0
 77c:	jal	93c <_lseek_r>
 780:	lh	a5,12(s0)
 784:	j	734 <__swrite+0x34>

Disassembly of section .text.__sseek:

00000788 <__sseek>:
 788:	addi	sp,sp,-16
 78c:	sw	s0,8(sp)
 790:	mv	s0,a1
 794:	lh	a1,14(a1)
 798:	sw	ra,12(sp)
 79c:	jal	93c <_lseek_r>
 7a0:	li	a4,-1
 7a4:	lh	a5,12(s0)
 7a8:	beq	a0,a4,7cc <__sseek+0x44>
 7ac:	lui	a4,0x1
 7b0:	or	a5,a5,a4
 7b4:	lw	ra,12(sp)
 7b8:	sw	a0,80(s0)
 7bc:	sh	a5,12(s0)
 7c0:	lw	s0,8(sp)
 7c4:	addi	sp,sp,16
 7c8:	ret
 7cc:	lui	a4,0xfffff
 7d0:	addi	a4,a4,-1 # ffffefff <__sp+0xfffeefff>
 7d4:	and	a5,a5,a4
 7d8:	lw	ra,12(sp)
 7dc:	sh	a5,12(s0)
 7e0:	lw	s0,8(sp)
 7e4:	addi	sp,sp,16
 7e8:	ret

Disassembly of section .text.__sclose:

000007ec <__sclose>:
 7ec:	lh	a1,14(a1)
 7f0:	j	7f4 <_close_r>

Disassembly of section .text._close_r:

000007f4 <_close_r>:
 7f4:	addi	sp,sp,-16
 7f8:	sw	s0,8(sp)
 7fc:	sw	s1,4(sp)
 800:	mv	s0,a0
 804:	lui	s1,0x2
 808:	mv	a0,a1
 80c:	sw	ra,12(sp)
 810:	sw	zero,1792(s1) # 2700 <errno>
 814:	jal	1e80 <_close>
 818:	li	a5,-1
 81c:	beq	a0,a5,834 <_close_r+0x40>
 820:	lw	ra,12(sp)
 824:	lw	s0,8(sp)
 828:	lw	s1,4(sp)
 82c:	addi	sp,sp,16
 830:	ret
 834:	lw	a5,1792(s1)
 838:	beqz	a5,820 <_close_r+0x2c>
 83c:	lw	ra,12(sp)
 840:	sw	a5,0(s0)
 844:	lw	s0,8(sp)
 848:	lw	s1,4(sp)
 84c:	addi	sp,sp,16
 850:	ret

Disassembly of section .text._reclaim_reent:

00000854 <_reclaim_reent>:
 854:	lui	a5,0x2
 858:	lw	a5,1432(a5) # 2598 <_impure_ptr>
 85c:	beq	a5,a0,938 <_reclaim_reent+0xe4>
 860:	lw	a1,68(a0)
 864:	addi	sp,sp,-32
 868:	sw	s1,20(sp)
 86c:	sw	ra,28(sp)
 870:	sw	s0,24(sp)
 874:	mv	s1,a0
 878:	beqz	a1,8c8 <_reclaim_reent+0x74>
 87c:	sw	s2,16(sp)
 880:	sw	s3,12(sp)
 884:	li	s2,0
 888:	li	s3,128
 88c:	add	a5,a1,s2
 890:	lw	s0,0(a5)
 894:	beqz	s0,8b0 <_reclaim_reent+0x5c>
 898:	mv	a1,s0
 89c:	lw	s0,0(s0)
 8a0:	mv	a0,s1
 8a4:	jal	db4 <_free_r>
 8a8:	bnez	s0,898 <_reclaim_reent+0x44>
 8ac:	lw	a1,68(s1)
 8b0:	addi	s2,s2,4
 8b4:	bne	s2,s3,88c <_reclaim_reent+0x38>
 8b8:	mv	a0,s1
 8bc:	jal	db4 <_free_r>
 8c0:	lw	s2,16(sp)
 8c4:	lw	s3,12(sp)
 8c8:	lw	a1,56(s1)
 8cc:	beqz	a1,8d8 <_reclaim_reent+0x84>
 8d0:	mv	a0,s1
 8d4:	jal	db4 <_free_r>
 8d8:	lw	s0,64(s1)
 8dc:	beqz	s0,8f4 <_reclaim_reent+0xa0>
 8e0:	mv	a1,s0
 8e4:	lw	s0,0(s0)
 8e8:	mv	a0,s1
 8ec:	jal	db4 <_free_r>
 8f0:	bnez	s0,8e0 <_reclaim_reent+0x8c>
 8f4:	lw	a1,76(s1)
 8f8:	beqz	a1,904 <_reclaim_reent+0xb0>
 8fc:	mv	a0,s1
 900:	jal	db4 <_free_r>
 904:	lw	a5,52(s1)
 908:	beqz	a5,924 <_reclaim_reent+0xd0>
 90c:	lw	s0,24(sp)
 910:	lw	ra,28(sp)
 914:	mv	a0,s1
 918:	lw	s1,20(sp)
 91c:	addi	sp,sp,32
 920:	jr	a5
 924:	lw	ra,28(sp)
 928:	lw	s0,24(sp)
 92c:	lw	s1,20(sp)
 930:	addi	sp,sp,32
 934:	ret
 938:	ret

Disassembly of section .text._lseek_r:

0000093c <_lseek_r>:
 93c:	addi	sp,sp,-16
 940:	mv	a4,a1
 944:	sw	s0,8(sp)
 948:	sw	s1,4(sp)
 94c:	mv	a1,a2
 950:	mv	s0,a0
 954:	mv	a2,a3
 958:	lui	s1,0x2
 95c:	mv	a0,a4
 960:	sw	ra,12(sp)
 964:	sw	zero,1792(s1) # 2700 <errno>
 968:	jal	1ef4 <_lseek>
 96c:	li	a5,-1
 970:	beq	a0,a5,988 <_lseek_r+0x4c>
 974:	lw	ra,12(sp)
 978:	lw	s0,8(sp)
 97c:	lw	s1,4(sp)
 980:	addi	sp,sp,16
 984:	ret
 988:	lw	a5,1792(s1)
 98c:	beqz	a5,974 <_lseek_r+0x38>
 990:	lw	ra,12(sp)
 994:	sw	a5,0(s0)
 998:	lw	s0,8(sp)
 99c:	lw	s1,4(sp)
 9a0:	addi	sp,sp,16
 9a4:	ret

Disassembly of section .text._read_r:

000009a8 <_read_r>:
 9a8:	addi	sp,sp,-16
 9ac:	mv	a4,a1
 9b0:	sw	s0,8(sp)
 9b4:	sw	s1,4(sp)
 9b8:	mv	a1,a2
 9bc:	mv	s0,a0
 9c0:	mv	a2,a3
 9c4:	lui	s1,0x2
 9c8:	mv	a0,a4
 9cc:	sw	ra,12(sp)
 9d0:	sw	zero,1792(s1) # 2700 <errno>
 9d4:	jal	1f38 <_read>
 9d8:	li	a5,-1
 9dc:	beq	a0,a5,9f4 <__global_pointer$+0x1c>
 9e0:	lw	ra,12(sp)
 9e4:	lw	s0,8(sp)
 9e8:	lw	s1,4(sp)
 9ec:	addi	sp,sp,16
 9f0:	ret
 9f4:	lw	a5,1792(s1)
 9f8:	beqz	a5,9e0 <__global_pointer$+0x8>
 9fc:	lw	ra,12(sp)
 a00:	sw	a5,0(s0)
 a04:	lw	s0,8(sp)
 a08:	lw	s1,4(sp)
 a0c:	addi	sp,sp,16
 a10:	ret

Disassembly of section .text._write_r:

00000a14 <_write_r>:
 a14:	addi	sp,sp,-16
 a18:	mv	a4,a1
 a1c:	sw	s0,8(sp)
 a20:	sw	s1,4(sp)
 a24:	mv	a1,a2
 a28:	mv	s0,a0
 a2c:	mv	a2,a3
 a30:	lui	s1,0x2
 a34:	mv	a0,a4
 a38:	sw	ra,12(sp)
 a3c:	sw	zero,1792(s1) # 2700 <errno>
 a40:	jal	1ff8 <_write>
 a44:	li	a5,-1
 a48:	beq	a0,a5,a60 <_write_r+0x4c>
 a4c:	lw	ra,12(sp)
 a50:	lw	s0,8(sp)
 a54:	lw	s1,4(sp)
 a58:	addi	sp,sp,16
 a5c:	ret
 a60:	lw	a5,1792(s1)
 a64:	beqz	a5,a4c <_write_r+0x38>
 a68:	lw	ra,12(sp)
 a6c:	sw	a5,0(s0)
 a70:	lw	s0,8(sp)
 a74:	lw	s1,4(sp)
 a78:	addi	sp,sp,16
 a7c:	ret

Disassembly of section .text.__libc_init_array:

00000a80 <__libc_init_array>:
 a80:	addi	sp,sp,-16
 a84:	sw	s0,8(sp)
 a88:	sw	s2,0(sp)
 a8c:	li	a5,0
 a90:	li	a4,0
 a94:	sw	ra,12(sp)
 a98:	sw	s1,4(sp)
 a9c:	sub	s2,a5,a4
 aa0:	beq	a5,a4,ac4 <__libc_init_array+0x44>
 aa4:	srai	s2,s2,0x2
 aa8:	li	s0,0
 aac:	li	s1,0
 ab0:	lw	a5,0(s0)
 ab4:	addi	s1,s1,1
 ab8:	addi	s0,s0,4
 abc:	jalr	a5
 ac0:	bltu	s1,s2,ab0 <__libc_init_array+0x30>
 ac4:	li	a5,0
 ac8:	li	a4,0
 acc:	sub	s2,a5,a4
 ad0:	srai	s2,s2,0x2
 ad4:	beq	a5,a4,af4 <__libc_init_array+0x74>
 ad8:	li	s0,0
 adc:	li	s1,0
 ae0:	lw	a5,0(s0)
 ae4:	addi	s1,s1,1
 ae8:	addi	s0,s0,4
 aec:	jalr	a5
 af0:	bltu	s1,s2,ae0 <__libc_init_array+0x60>
 af4:	lw	ra,12(sp)
 af8:	lw	s0,8(sp)
 afc:	lw	s1,4(sp)
 b00:	lw	s2,0(sp)
 b04:	addi	sp,sp,16
 b08:	ret

Disassembly of section .text.startup.register_fini:

00000b0c <register_fini>:
 b0c:	li	a5,0
 b10:	beqz	a5,b20 <register_fini+0x14>
 b14:	lui	a0,0x2
 b18:	addi	a0,a0,-628 # 1d8c <__libc_fini_array>
 b1c:	j	c5c <atexit>
 b20:	ret

Disassembly of section .text.__call_exitprocs:

00000b24 <__call_exitprocs>:
 b24:	addi	sp,sp,-48
 b28:	sw	s4,24(sp)
 b2c:	lui	s4,0x2
 b30:	sw	s2,32(sp)
 b34:	lw	s2,1796(s4) # 2704 <__atexit>
 b38:	sw	ra,44(sp)
 b3c:	beqz	s2,bb4 <__call_exitprocs+0x90>
 b40:	sw	s3,28(sp)
 b44:	sw	s5,20(sp)
 b48:	sw	s6,16(sp)
 b4c:	sw	s7,12(sp)
 b50:	sw	s0,40(sp)
 b54:	sw	s1,36(sp)
 b58:	sw	s8,8(sp)
 b5c:	mv	s6,a0
 b60:	mv	s7,a1
 b64:	li	s3,-1
 b68:	li	s5,1
 b6c:	lw	s1,4(s2)
 b70:	addi	s0,s1,-1
 b74:	bltz	s0,b98 <__call_exitprocs+0x74>
 b78:	slli	s1,s1,0x2
 b7c:	add	s1,s2,s1
 b80:	beqz	s7,bc8 <__call_exitprocs+0xa4>
 b84:	lw	a5,260(s1)
 b88:	beq	a5,s7,bc8 <__call_exitprocs+0xa4>
 b8c:	addi	s0,s0,-1
 b90:	addi	s1,s1,-4
 b94:	bne	s0,s3,b84 <__call_exitprocs+0x60>
 b98:	lw	s0,40(sp)
 b9c:	lw	s1,36(sp)
 ba0:	lw	s3,28(sp)
 ba4:	lw	s5,20(sp)
 ba8:	lw	s6,16(sp)
 bac:	lw	s7,12(sp)
 bb0:	lw	s8,8(sp)
 bb4:	lw	ra,44(sp)
 bb8:	lw	s2,32(sp)
 bbc:	lw	s4,24(sp)
 bc0:	addi	sp,sp,48
 bc4:	ret
 bc8:	lw	a5,4(s2)
 bcc:	lw	a3,4(s1)
 bd0:	addi	a5,a5,-1
 bd4:	beq	a5,s0,c48 <__call_exitprocs+0x124>
 bd8:	sw	zero,4(s1)
 bdc:	beqz	a3,c08 <__call_exitprocs+0xe4>
 be0:	lw	a5,392(s2)
 be4:	sll	a4,s5,s0
 be8:	lw	s8,4(s2)
 bec:	and	a5,a4,a5
 bf0:	bnez	a5,c18 <__call_exitprocs+0xf4>
 bf4:	jalr	a3
 bf8:	lw	a4,4(s2)
 bfc:	lw	a5,1796(s4)
 c00:	bne	a4,s8,c3c <__call_exitprocs+0x118>
 c04:	bne	a5,s2,c3c <__call_exitprocs+0x118>
 c08:	addi	s0,s0,-1
 c0c:	addi	s1,s1,-4
 c10:	bne	s0,s3,b80 <__call_exitprocs+0x5c>
 c14:	j	b98 <__call_exitprocs+0x74>
 c18:	lw	a5,396(s2)
 c1c:	lw	a1,132(s1)
 c20:	and	a4,a4,a5
 c24:	bnez	a4,c50 <__call_exitprocs+0x12c>
 c28:	mv	a0,s6
 c2c:	jalr	a3
 c30:	lw	a4,4(s2)
 c34:	lw	a5,1796(s4)
 c38:	beq	a4,s8,c04 <__call_exitprocs+0xe0>
 c3c:	beqz	a5,b98 <__call_exitprocs+0x74>
 c40:	mv	s2,a5
 c44:	j	b6c <__call_exitprocs+0x48>
 c48:	sw	s0,4(s2)
 c4c:	j	bdc <__call_exitprocs+0xb8>
 c50:	mv	a0,a1
 c54:	jalr	a3
 c58:	j	bf8 <__call_exitprocs+0xd4>

Disassembly of section .text.atexit:

00000c5c <atexit>:
 c5c:	mv	a1,a0
 c60:	li	a3,0
 c64:	li	a2,0
 c68:	li	a0,0
 c6c:	j	1de0 <__register_exitproc>

Disassembly of section .text._malloc_trim_r:

00000c70 <_malloc_trim_r>:
 c70:	addi	sp,sp,-32
 c74:	sw	s3,12(sp)
 c78:	lui	s3,0x2
 c7c:	sw	s0,24(sp)
 c80:	sw	s1,20(sp)
 c84:	sw	s2,16(sp)
 c88:	sw	s4,8(sp)
 c8c:	sw	ra,28(sp)
 c90:	mv	s4,a1
 c94:	mv	s2,a0
 c98:	addi	s3,s3,384 # 2180 <__malloc_av_>
 c9c:	jal	18cc <__malloc_lock>
 ca0:	lw	a5,8(s3)
 ca4:	lui	s0,0x1
 ca8:	addi	s0,s0,-17 # fef <_free_r+0x23b>
 cac:	lw	s1,4(a5)
 cb0:	lui	a5,0x1
 cb4:	andi	s1,s1,-4
 cb8:	add	s0,s1,s0
 cbc:	sub	s0,s0,s4
 cc0:	srli	s0,s0,0xc
 cc4:	addi	s0,s0,-1
 cc8:	slli	s0,s0,0xc
 ccc:	blt	s0,a5,ce8 <_malloc_trim_r+0x78>
 cd0:	li	a1,0
 cd4:	mv	a0,s2
 cd8:	jal	1d2c <_sbrk_r>
 cdc:	lw	a5,8(s3)
 ce0:	add	a5,a5,s1
 ce4:	beq	a0,a5,d14 <_malloc_trim_r+0xa4>
 ce8:	mv	a0,s2
 cec:	jal	18d0 <__malloc_unlock>
 cf0:	lw	ra,28(sp)
 cf4:	lw	s0,24(sp)
 cf8:	lw	s1,20(sp)
 cfc:	lw	s2,16(sp)
 d00:	lw	s3,12(sp)
 d04:	lw	s4,8(sp)
 d08:	li	a0,0
 d0c:	addi	sp,sp,32
 d10:	ret
 d14:	neg	a1,s0
 d18:	mv	a0,s2
 d1c:	jal	1d2c <_sbrk_r>
 d20:	li	a5,-1
 d24:	beq	a0,a5,d78 <_malloc_trim_r+0x108>
 d28:	lui	a5,0x2
 d2c:	addi	a5,a5,1800 # 2708 <__malloc_current_mallinfo>
 d30:	lw	a3,8(s3)
 d34:	lw	a4,0(a5)
 d38:	sub	s1,s1,s0
 d3c:	ori	s1,s1,1
 d40:	mv	a0,s2
 d44:	sub	a4,a4,s0
 d48:	sw	s1,4(a3)
 d4c:	sw	a4,0(a5)
 d50:	jal	18d0 <__malloc_unlock>
 d54:	lw	ra,28(sp)
 d58:	lw	s0,24(sp)
 d5c:	lw	s1,20(sp)
 d60:	lw	s2,16(sp)
 d64:	lw	s3,12(sp)
 d68:	lw	s4,8(sp)
 d6c:	li	a0,1
 d70:	addi	sp,sp,32
 d74:	ret
 d78:	li	a1,0
 d7c:	mv	a0,s2
 d80:	jal	1d2c <_sbrk_r>
 d84:	lw	a4,8(s3)
 d88:	li	a3,15
 d8c:	sub	a5,a0,a4
 d90:	bge	a3,a5,ce8 <_malloc_trim_r+0x78>
 d94:	lui	a3,0x2
 d98:	lw	a2,1440(a3) # 25a0 <__malloc_sbrk_base>
 d9c:	ori	a5,a5,1
 da0:	lui	a3,0x2
 da4:	sub	a0,a0,a2
 da8:	sw	a5,4(a4)
 dac:	sw	a0,1800(a3) # 2708 <__malloc_current_mallinfo>
 db0:	j	ce8 <_malloc_trim_r+0x78>

Disassembly of section .text._free_r:

00000db4 <_free_r>:
     db4:	beqz	a1,ee0 <_free_r+0x12c>
     db8:	addi	sp,sp,-16
     dbc:	sw	s0,8(sp)
     dc0:	sw	s1,4(sp)
     dc4:	mv	s0,a1
     dc8:	mv	s1,a0
     dcc:	sw	ra,12(sp)
     dd0:	jal	18cc <__malloc_lock>
     dd4:	lw	a0,-4(s0)
     dd8:	addi	a4,s0,-8
     ddc:	lui	a1,0x2
     de0:	andi	a5,a0,-2
     de4:	add	a2,a4,a5
     de8:	addi	a1,a1,384 # 2180 <__malloc_av_>
     dec:	lw	a3,4(a2)
     df0:	lw	a6,8(a1)
     df4:	andi	a7,a0,1
     df8:	andi	a3,a3,-4
     dfc:	beq	a6,a2,f94 <_free_r+0x1e0>
     e00:	sw	a3,4(a2)
     e04:	add	a6,a2,a3
     e08:	lw	a6,4(a6)
     e0c:	andi	a6,a6,1
     e10:	bnez	a7,ea8 <_free_r+0xf4>
     e14:	lw	t1,-8(s0)
     e18:	lui	a0,0x2
     e1c:	addi	a0,a0,392 # 2188 <__malloc_av_+0x8>
     e20:	sub	a4,a4,t1
     e24:	lw	a7,8(a4)
     e28:	add	a5,a5,t1
     e2c:	beq	a7,a0,f68 <_free_r+0x1b4>
     e30:	lw	t1,12(a4)
     e34:	sw	t1,12(a7)
     e38:	sw	a7,8(t1) # cc <frame_dummy+0x20>
     e3c:	beqz	a6,fe4 <_free_r+0x230>
     e40:	ori	a3,a5,1
     e44:	sw	a3,4(a4)
     e48:	sw	a5,0(a2)
     e4c:	li	a3,511
     e50:	bltu	a3,a5,ef8 <_free_r+0x144>
     e54:	andi	a3,a5,-8
     e58:	addi	a3,a3,8
     e5c:	lw	a0,4(a1)
     e60:	add	a3,a1,a3
     e64:	lw	a2,0(a3)
     e68:	srli	a6,a5,0x5
     e6c:	li	a5,1
     e70:	sll	a5,a5,a6
     e74:	or	a5,a5,a0
     e78:	addi	a0,a3,-8
     e7c:	sw	a2,8(a4)
     e80:	sw	a0,12(a4)
     e84:	sw	a5,4(a1)
     e88:	sw	a4,0(a3)
     e8c:	sw	a4,12(a2)
     e90:	lw	s0,8(sp)
     e94:	lw	ra,12(sp)
     e98:	mv	a0,s1
     e9c:	lw	s1,4(sp)
     ea0:	addi	sp,sp,16
     ea4:	j	18d0 <__malloc_unlock>
     ea8:	bnez	a6,ee4 <_free_r+0x130>
     eac:	lui	a0,0x2
     eb0:	add	a5,a5,a3
     eb4:	addi	a0,a0,392 # 2188 <__malloc_av_+0x8>
     eb8:	lw	a3,8(a2)
     ebc:	ori	a7,a5,1
     ec0:	add	a6,a4,a5
     ec4:	beq	a3,a0,1030 <_free_r+0x27c>
     ec8:	lw	a2,12(a2)
     ecc:	sw	a2,12(a3)
     ed0:	sw	a3,8(a2)
     ed4:	sw	a7,4(a4)
     ed8:	sw	a5,0(a6)
     edc:	j	e4c <_free_r+0x98>
     ee0:	ret
     ee4:	ori	a0,a0,1
     ee8:	sw	a0,-4(s0)
     eec:	sw	a5,0(a2)
     ef0:	li	a3,511
     ef4:	bgeu	a3,a5,e54 <_free_r+0xa0>
     ef8:	srli	a3,a5,0x9
     efc:	li	a2,4
     f00:	bltu	a2,a3,fec <_free_r+0x238>
     f04:	srli	a3,a5,0x6
     f08:	addi	a0,a3,57
     f0c:	slli	a0,a0,0x3
     f10:	addi	a2,a3,56
     f14:	add	a0,a1,a0
     f18:	lw	a3,0(a0)
     f1c:	addi	a0,a0,-8
     f20:	bne	a0,a3,f30 <_free_r+0x17c>
     f24:	j	104c <_free_r+0x298>
     f28:	lw	a3,8(a3)
     f2c:	beq	a0,a3,f3c <_free_r+0x188>
     f30:	lw	a2,4(a3)
     f34:	andi	a2,a2,-4
     f38:	bltu	a5,a2,f28 <_free_r+0x174>
     f3c:	lw	a0,12(a3)
     f40:	sw	a0,12(a4)
     f44:	sw	a3,8(a4)
     f48:	lw	s0,8(sp)
     f4c:	sw	a4,8(a0)
     f50:	lw	ra,12(sp)
     f54:	mv	a0,s1
     f58:	lw	s1,4(sp)
     f5c:	sw	a4,12(a3)
     f60:	addi	sp,sp,16
     f64:	j	18d0 <__malloc_unlock>
     f68:	bnez	a6,1010 <_free_r+0x25c>
     f6c:	lw	a1,12(a2)
     f70:	lw	a2,8(a2)
     f74:	add	a3,a3,a5
     f78:	ori	a5,a3,1
     f7c:	sw	a1,12(a2)
     f80:	sw	a2,8(a1)
     f84:	sw	a5,4(a4)
     f88:	add	a4,a4,a3
     f8c:	sw	a3,0(a4)
     f90:	j	e90 <_free_r+0xdc>
     f94:	add	a3,a5,a3
     f98:	bnez	a7,fb8 <_free_r+0x204>
     f9c:	lw	a0,-8(s0)
     fa0:	sub	a4,a4,a0
     fa4:	lw	a5,12(a4)
     fa8:	lw	a2,8(a4)
     fac:	add	a3,a3,a0
     fb0:	sw	a5,12(a2)
     fb4:	sw	a2,8(a5)
     fb8:	lui	a5,0x2
     fbc:	ori	a2,a3,1
     fc0:	lw	a5,1444(a5) # 25a4 <__malloc_trim_threshold>
     fc4:	sw	a2,4(a4)
     fc8:	sw	a4,8(a1)
     fcc:	bltu	a3,a5,e90 <_free_r+0xdc>
     fd0:	lui	a5,0x2
     fd4:	lw	a1,1848(a5) # 2738 <__malloc_top_pad>
     fd8:	mv	a0,s1
     fdc:	jal	c70 <_malloc_trim_r>
     fe0:	j	e90 <_free_r+0xdc>
     fe4:	add	a5,a5,a3
     fe8:	j	eb8 <_free_r+0x104>
     fec:	li	a2,20
     ff0:	bgeu	a2,a3,1020 <_free_r+0x26c>
     ff4:	li	a2,84
     ff8:	bltu	a2,a3,1068 <_free_r+0x2b4>
     ffc:	srli	a3,a5,0xc
    1000:	addi	a0,a3,111
    1004:	slli	a0,a0,0x3
    1008:	addi	a2,a3,110
    100c:	j	f14 <_free_r+0x160>
    1010:	ori	a3,a5,1
    1014:	sw	a3,4(a4)
    1018:	sw	a5,0(a2)
    101c:	j	e90 <_free_r+0xdc>
    1020:	addi	a0,a3,92
    1024:	slli	a0,a0,0x3
    1028:	addi	a2,a3,91
    102c:	j	f14 <_free_r+0x160>
    1030:	sw	a4,20(a1)
    1034:	sw	a4,16(a1)
    1038:	sw	a0,12(a4)
    103c:	sw	a0,8(a4)
    1040:	sw	a7,4(a4)
    1044:	sw	a5,0(a6)
    1048:	j	e90 <_free_r+0xdc>
    104c:	lw	a6,4(a1)
    1050:	srai	a2,a2,0x2
    1054:	li	a5,1
    1058:	sll	a5,a5,a2
    105c:	or	a5,a5,a6
    1060:	sw	a5,4(a1)
    1064:	j	f40 <_free_r+0x18c>
    1068:	li	a2,340
    106c:	bltu	a2,a3,1084 <_free_r+0x2d0>
    1070:	srli	a3,a5,0xf
    1074:	addi	a0,a3,120
    1078:	slli	a0,a0,0x3
    107c:	addi	a2,a3,119
    1080:	j	f14 <_free_r+0x160>
    1084:	li	a2,1364
    1088:	bltu	a2,a3,10a0 <_free_r+0x2ec>
    108c:	srli	a3,a5,0x12
    1090:	addi	a0,a3,125
    1094:	slli	a0,a0,0x3
    1098:	addi	a2,a3,124
    109c:	j	f14 <_free_r+0x160>
    10a0:	li	a0,1016
    10a4:	li	a2,126
    10a8:	j	f14 <_free_r+0x160>

Disassembly of section .text._malloc_r:

000010ac <_malloc_r>:
    10ac:	addi	sp,sp,-48
    10b0:	sw	s3,28(sp)
    10b4:	sw	ra,44(sp)
    10b8:	sw	s0,40(sp)
    10bc:	sw	s1,36(sp)
    10c0:	sw	s2,32(sp)
    10c4:	addi	a5,a1,11
    10c8:	li	a4,22
    10cc:	mv	s3,a0
    10d0:	bltu	a4,a5,1150 <_malloc_r+0xa4>
    10d4:	li	s1,16
    10d8:	bltu	s1,a1,12e0 <_malloc_r+0x234>
    10dc:	jal	18cc <__malloc_lock>
    10e0:	li	a5,24
    10e4:	li	a1,2
    10e8:	lui	s2,0x2
    10ec:	addi	s2,s2,384 # 2180 <__malloc_av_>
    10f0:	add	a5,s2,a5
    10f4:	lw	s0,4(a5)
    10f8:	addi	a4,a5,-8
    10fc:	beq	s0,a4,155c <_malloc_r+0x4b0>
    1100:	lw	a5,4(s0)
    1104:	lw	a3,12(s0)
    1108:	lw	a2,8(s0)
    110c:	andi	a5,a5,-4
    1110:	add	a5,s0,a5
    1114:	lw	a4,4(a5)
    1118:	sw	a3,12(a2)
    111c:	sw	a2,8(a3)
    1120:	ori	a4,a4,1
    1124:	mv	a0,s3
    1128:	sw	a4,4(a5)
    112c:	jal	18d0 <__malloc_unlock>
    1130:	lw	ra,44(sp)
    1134:	addi	a0,s0,8
    1138:	lw	s0,40(sp)
    113c:	lw	s1,36(sp)
    1140:	lw	s2,32(sp)
    1144:	lw	s3,28(sp)
    1148:	addi	sp,sp,48
    114c:	ret
    1150:	andi	s1,a5,-8
    1154:	bltz	a5,12e0 <_malloc_r+0x234>
    1158:	bltu	s1,a1,12e0 <_malloc_r+0x234>
    115c:	jal	18cc <__malloc_lock>
    1160:	li	a5,503
    1164:	bgeu	a5,s1,1670 <_malloc_r+0x5c4>
    1168:	srli	a5,s1,0x9
    116c:	beqz	a5,1308 <_malloc_r+0x25c>
    1170:	li	a4,4
    1174:	bltu	a4,a5,15cc <_malloc_r+0x520>
    1178:	srli	a5,s1,0x6
    117c:	addi	a1,a5,57
    1180:	addi	a6,a5,56
    1184:	slli	a2,a1,0x3
    1188:	lui	s2,0x2
    118c:	addi	s2,s2,384 # 2180 <__malloc_av_>
    1190:	add	a2,s2,a2
    1194:	lw	s0,4(a2)
    1198:	addi	a2,a2,-8
    119c:	beq	a2,s0,11cc <_malloc_r+0x120>
    11a0:	li	a0,15
    11a4:	j	11b8 <_malloc_r+0x10c>
    11a8:	lw	a3,12(s0)
    11ac:	bgez	a4,1518 <_malloc_r+0x46c>
    11b0:	beq	a2,a3,11cc <_malloc_r+0x120>
    11b4:	mv	s0,a3
    11b8:	lw	a5,4(s0)
    11bc:	andi	a5,a5,-4
    11c0:	sub	a4,a5,s1
    11c4:	bge	a0,a4,11a8 <_malloc_r+0xfc>
    11c8:	mv	a1,a6
    11cc:	lw	s0,16(s2)
    11d0:	lui	a6,0x2
    11d4:	addi	a6,a6,392 # 2188 <__malloc_av_+0x8>
    11d8:	beq	s0,a6,1498 <_malloc_r+0x3ec>
    11dc:	lw	a5,4(s0)
    11e0:	li	a3,15
    11e4:	andi	a5,a5,-4
    11e8:	sub	a4,a5,s1
    11ec:	blt	a3,a4,167c <_malloc_r+0x5d0>
    11f0:	sw	a6,20(s2)
    11f4:	sw	a6,16(s2)
    11f8:	bgez	a4,1650 <_malloc_r+0x5a4>
    11fc:	li	a4,511
    1200:	lw	a0,4(s2)
    1204:	bltu	a4,a5,156c <_malloc_r+0x4c0>
    1208:	andi	a4,a5,-8
    120c:	addi	a4,a4,8
    1210:	add	a4,s2,a4
    1214:	lw	a3,0(a4)
    1218:	srli	a2,a5,0x5
    121c:	li	a5,1
    1220:	sll	a5,a5,a2
    1224:	or	a0,a0,a5
    1228:	addi	a5,a4,-8
    122c:	sw	a3,8(s0)
    1230:	sw	a5,12(s0)
    1234:	sw	a0,4(s2)
    1238:	sw	s0,0(a4)
    123c:	sw	s0,12(a3)
    1240:	srai	a5,a1,0x2
    1244:	li	a2,1
    1248:	sll	a2,a2,a5
    124c:	bltu	a0,a2,1318 <_malloc_r+0x26c>
    1250:	and	a5,a2,a0
    1254:	bnez	a5,127c <_malloc_r+0x1d0>
    1258:	slli	a2,a2,0x1
    125c:	andi	a1,a1,-4
    1260:	and	a5,a2,a0
    1264:	addi	a1,a1,4
    1268:	bnez	a5,127c <_malloc_r+0x1d0>
    126c:	slli	a2,a2,0x1
    1270:	and	a5,a2,a0
    1274:	addi	a1,a1,4
    1278:	beqz	a5,126c <_malloc_r+0x1c0>
    127c:	li	a7,15
    1280:	slli	t1,a1,0x3
    1284:	add	t1,s2,t1
    1288:	mv	a0,t1
    128c:	lw	a5,12(a0)
    1290:	mv	t3,a1
    1294:	beq	a0,a5,15f0 <_malloc_r+0x544>
    1298:	lw	a4,4(a5)
    129c:	mv	s0,a5
    12a0:	lw	a5,12(a5)
    12a4:	andi	a4,a4,-4
    12a8:	sub	a3,a4,s1
    12ac:	blt	a7,a3,1608 <_malloc_r+0x55c>
    12b0:	bltz	a3,1294 <_malloc_r+0x1e8>
    12b4:	add	a4,s0,a4
    12b8:	lw	a3,4(a4)
    12bc:	lw	a2,8(s0)
    12c0:	mv	a0,s3
    12c4:	ori	a3,a3,1
    12c8:	sw	a3,4(a4)
    12cc:	sw	a5,12(a2)
    12d0:	sw	a2,8(a5)
    12d4:	jal	18d0 <__malloc_unlock>
    12d8:	addi	a0,s0,8
    12dc:	j	12ec <_malloc_r+0x240>
    12e0:	li	a5,12
    12e4:	sw	a5,0(s3)
    12e8:	li	a0,0
    12ec:	lw	ra,44(sp)
    12f0:	lw	s0,40(sp)
    12f4:	lw	s1,36(sp)
    12f8:	lw	s2,32(sp)
    12fc:	lw	s3,28(sp)
    1300:	addi	sp,sp,48
    1304:	ret
    1308:	li	a2,512
    130c:	li	a1,64
    1310:	li	a6,63
    1314:	j	1188 <_malloc_r+0xdc>
    1318:	lw	s0,8(s2)
    131c:	sw	s6,16(sp)
    1320:	lw	a5,4(s0)
    1324:	andi	s6,a5,-4
    1328:	bltu	s6,s1,1338 <_malloc_r+0x28c>
    132c:	sub	a4,s6,s1
    1330:	li	a5,15
    1334:	blt	a5,a4,14d4 <_malloc_r+0x428>
    1338:	lui	a5,0x2
    133c:	sw	s9,4(sp)
    1340:	lui	s9,0x2
    1344:	sw	s5,20(sp)
    1348:	lw	a4,1440(s9) # 25a0 <__malloc_sbrk_base>
    134c:	lw	s5,1848(a5) # 2738 <__malloc_top_pad>
    1350:	sw	s4,24(sp)
    1354:	sw	s7,12(sp)
    1358:	li	a5,-1
    135c:	add	s5,s1,s5
    1360:	add	s4,s0,s6
    1364:	beq	a4,a5,1748 <_malloc_r+0x69c>
    1368:	lui	a5,0x1
    136c:	addi	a5,a5,15 # 100f <_free_r+0x25b>
    1370:	add	s5,s5,a5
    1374:	lui	a5,0xfffff
    1378:	and	s5,s5,a5
    137c:	mv	a1,s5
    1380:	mv	a0,s3
    1384:	jal	1d2c <_sbrk_r>
    1388:	li	a5,-1
    138c:	mv	s7,a0
    1390:	beq	a0,a5,1810 <_malloc_r+0x764>
    1394:	sw	s8,8(sp)
    1398:	bltu	a0,s4,14a0 <_malloc_r+0x3f4>
    139c:	lui	s8,0x2
    13a0:	addi	s8,s8,1800 # 2708 <__malloc_current_mallinfo>
    13a4:	lw	a1,0(s8)
    13a8:	add	a1,s5,a1
    13ac:	sw	a1,0(s8)
    13b0:	mv	a4,a1
    13b4:	beq	s4,a0,181c <_malloc_r+0x770>
    13b8:	lw	a3,1440(s9)
    13bc:	li	a5,-1
    13c0:	beq	a3,a5,1838 <_malloc_r+0x78c>
    13c4:	sub	a5,s7,s4
    13c8:	add	a5,a5,a4
    13cc:	sw	a5,0(s8)
    13d0:	andi	s9,s7,7
    13d4:	beqz	s9,1768 <_malloc_r+0x6bc>
    13d8:	sub	s7,s7,s9
    13dc:	lui	a1,0x1
    13e0:	addi	s7,s7,8
    13e4:	addi	a1,a1,8 # 1008 <_free_r+0x254>
    13e8:	add	s5,s7,s5
    13ec:	sub	a1,a1,s9
    13f0:	sub	a1,a1,s5
    13f4:	slli	a1,a1,0x14
    13f8:	srli	s4,a1,0x14
    13fc:	mv	a1,s4
    1400:	mv	a0,s3
    1404:	jal	1d2c <_sbrk_r>
    1408:	li	a5,-1
    140c:	beq	a0,a5,1878 <_malloc_r+0x7cc>
    1410:	sub	a0,a0,s7
    1414:	add	s5,a0,s4
    1418:	lw	a4,0(s8)
    141c:	sw	s7,8(s2)
    1420:	ori	a5,s5,1
    1424:	add	a1,s4,a4
    1428:	sw	a5,4(s7)
    142c:	sw	a1,0(s8)
    1430:	beq	s0,s2,146c <_malloc_r+0x3c0>
    1434:	li	a3,15
    1438:	bgeu	a3,s6,1794 <_malloc_r+0x6e8>
    143c:	lw	a4,4(s0)
    1440:	addi	a5,s6,-12
    1444:	andi	a5,a5,-8
    1448:	andi	a4,a4,1
    144c:	or	a4,a4,a5
    1450:	sw	a4,4(s0)
    1454:	li	a2,5
    1458:	add	a4,s0,a5
    145c:	sw	a2,4(a4)
    1460:	sw	a2,8(a4)
    1464:	bltu	a3,a5,1730 <_malloc_r+0x684>
    1468:	lw	a5,4(s7)
    146c:	lui	a4,0x2
    1470:	lw	a3,1844(a4) # 2734 <__malloc_max_sbrked_mem>
    1474:	bgeu	a3,a1,147c <_malloc_r+0x3d0>
    1478:	sw	a1,1844(a4)
    147c:	lui	a4,0x2
    1480:	lw	a3,1840(a4) # 2730 <__malloc_max_total_mem>
    1484:	bgeu	a3,a1,148c <_malloc_r+0x3e0>
    1488:	sw	a1,1840(a4)
    148c:	lw	s8,8(sp)
    1490:	mv	s0,s7
    1494:	j	14b0 <_malloc_r+0x404>
    1498:	lw	a0,4(s2)
    149c:	j	1240 <_malloc_r+0x194>
    14a0:	beq	s0,s2,17f8 <_malloc_r+0x74c>
    14a4:	lw	s0,8(s2)
    14a8:	lw	s8,8(sp)
    14ac:	lw	a5,4(s0)
    14b0:	andi	a5,a5,-4
    14b4:	sub	a4,a5,s1
    14b8:	bltu	a5,s1,17a0 <_malloc_r+0x6f4>
    14bc:	li	a5,15
    14c0:	bge	a5,a4,17a0 <_malloc_r+0x6f4>
    14c4:	lw	s4,24(sp)
    14c8:	lw	s5,20(sp)
    14cc:	lw	s7,12(sp)
    14d0:	lw	s9,4(sp)
    14d4:	ori	a5,s1,1
    14d8:	sw	a5,4(s0)
    14dc:	add	s1,s0,s1
    14e0:	sw	s1,8(s2)
    14e4:	ori	a4,a4,1
    14e8:	mv	a0,s3
    14ec:	sw	a4,4(s1)
    14f0:	jal	18d0 <__malloc_unlock>
    14f4:	lw	ra,44(sp)
    14f8:	addi	a0,s0,8
    14fc:	lw	s0,40(sp)
    1500:	lw	s6,16(sp)
    1504:	lw	s1,36(sp)
    1508:	lw	s2,32(sp)
    150c:	lw	s3,28(sp)
    1510:	addi	sp,sp,48
    1514:	ret
    1518:	lw	a2,8(s0)
    151c:	add	a5,s0,a5
    1520:	lw	a4,4(a5) # fffff004 <__sp+0xfffef004>
    1524:	sw	a3,12(a2)
    1528:	sw	a2,8(a3)
    152c:	ori	a4,a4,1
    1530:	mv	a0,s3
    1534:	sw	a4,4(a5)
    1538:	jal	18d0 <__malloc_unlock>
    153c:	lw	ra,44(sp)
    1540:	addi	a0,s0,8
    1544:	lw	s0,40(sp)
    1548:	lw	s1,36(sp)
    154c:	lw	s2,32(sp)
    1550:	lw	s3,28(sp)
    1554:	addi	sp,sp,48
    1558:	ret
    155c:	lw	s0,12(a5)
    1560:	addi	a1,a1,2
    1564:	beq	a5,s0,11cc <_malloc_r+0x120>
    1568:	j	1100 <_malloc_r+0x54>
    156c:	srli	a4,a5,0x9
    1570:	li	a3,4
    1574:	bgeu	a3,a4,16b8 <_malloc_r+0x60c>
    1578:	li	a3,20
    157c:	bltu	a3,a4,17c0 <_malloc_r+0x714>
    1580:	addi	a2,a4,92
    1584:	slli	a2,a2,0x3
    1588:	addi	a3,a4,91
    158c:	add	a2,s2,a2
    1590:	lw	a4,0(a2)
    1594:	addi	a2,a2,-8
    1598:	bne	a2,a4,15a8 <_malloc_r+0x4fc>
    159c:	j	1750 <_malloc_r+0x6a4>
    15a0:	lw	a4,8(a4)
    15a4:	beq	a2,a4,15b4 <_malloc_r+0x508>
    15a8:	lw	a3,4(a4)
    15ac:	andi	a3,a3,-4
    15b0:	bltu	a5,a3,15a0 <_malloc_r+0x4f4>
    15b4:	lw	a2,12(a4)
    15b8:	sw	a2,12(s0)
    15bc:	sw	a4,8(s0)
    15c0:	sw	s0,8(a2)
    15c4:	sw	s0,12(a4)
    15c8:	j	1240 <_malloc_r+0x194>
    15cc:	li	a4,20
    15d0:	bgeu	a4,a5,16cc <_malloc_r+0x620>
    15d4:	li	a4,84
    15d8:	bltu	a4,a5,17dc <_malloc_r+0x730>
    15dc:	srli	a5,s1,0xc
    15e0:	addi	a1,a5,111
    15e4:	addi	a6,a5,110
    15e8:	slli	a2,a1,0x3
    15ec:	j	1188 <_malloc_r+0xdc>
    15f0:	addi	t3,t3,1
    15f4:	andi	a5,t3,3
    15f8:	addi	a0,a0,8
    15fc:	beqz	a5,16e8 <_malloc_r+0x63c>
    1600:	lw	a5,12(a0)
    1604:	j	1294 <_malloc_r+0x1e8>
    1608:	lw	a2,8(s0)
    160c:	ori	a1,s1,1
    1610:	sw	a1,4(s0)
    1614:	sw	a5,12(a2)
    1618:	sw	a2,8(a5)
    161c:	add	s1,s0,s1
    1620:	sw	s1,20(s2)
    1624:	sw	s1,16(s2)
    1628:	ori	a5,a3,1
    162c:	add	a4,s0,a4
    1630:	sw	a6,12(s1)
    1634:	sw	a6,8(s1)
    1638:	sw	a5,4(s1)
    163c:	mv	a0,s3
    1640:	sw	a3,0(a4)
    1644:	jal	18d0 <__malloc_unlock>
    1648:	addi	a0,s0,8
    164c:	j	12ec <_malloc_r+0x240>
    1650:	add	a5,s0,a5
    1654:	lw	a4,4(a5)
    1658:	mv	a0,s3
    165c:	ori	a4,a4,1
    1660:	sw	a4,4(a5)
    1664:	jal	18d0 <__malloc_unlock>
    1668:	addi	a0,s0,8
    166c:	j	12ec <_malloc_r+0x240>
    1670:	srli	a1,s1,0x3
    1674:	addi	a5,s1,8
    1678:	j	10e8 <_malloc_r+0x3c>
    167c:	ori	a3,s1,1
    1680:	sw	a3,4(s0)
    1684:	add	s1,s0,s1
    1688:	sw	s1,20(s2)
    168c:	sw	s1,16(s2)
    1690:	ori	a3,a4,1
    1694:	add	a5,s0,a5
    1698:	sw	a6,12(s1)
    169c:	sw	a6,8(s1)
    16a0:	sw	a3,4(s1)
    16a4:	mv	a0,s3
    16a8:	sw	a4,0(a5)
    16ac:	jal	18d0 <__malloc_unlock>
    16b0:	addi	a0,s0,8
    16b4:	j	12ec <_malloc_r+0x240>
    16b8:	srli	a4,a5,0x6
    16bc:	addi	a2,a4,57
    16c0:	slli	a2,a2,0x3
    16c4:	addi	a3,a4,56
    16c8:	j	158c <_malloc_r+0x4e0>
    16cc:	addi	a1,a5,92
    16d0:	addi	a6,a5,91
    16d4:	slli	a2,a1,0x3
    16d8:	j	1188 <_malloc_r+0xdc>
    16dc:	lw	a5,8(t1)
    16e0:	addi	a1,a1,-1
    16e4:	bne	a5,t1,18c4 <_malloc_r+0x818>
    16e8:	andi	a5,a1,3
    16ec:	addi	t1,t1,-8
    16f0:	bnez	a5,16dc <_malloc_r+0x630>
    16f4:	lw	a4,4(s2)
    16f8:	not	a5,a2
    16fc:	and	a5,a5,a4
    1700:	sw	a5,4(s2)
    1704:	slli	a2,a2,0x1
    1708:	bltu	a5,a2,1318 <_malloc_r+0x26c>
    170c:	beqz	a2,1318 <_malloc_r+0x26c>
    1710:	and	a4,a2,a5
    1714:	bnez	a4,1728 <_malloc_r+0x67c>
    1718:	slli	a2,a2,0x1
    171c:	and	a4,a2,a5
    1720:	addi	t3,t3,4
    1724:	beqz	a4,1718 <_malloc_r+0x66c>
    1728:	mv	a1,t3
    172c:	j	1280 <_malloc_r+0x1d4>
    1730:	addi	a1,s0,8
    1734:	mv	a0,s3
    1738:	jal	db4 <_free_r>
    173c:	lw	a1,0(s8)
    1740:	lw	s7,8(s2)
    1744:	j	1468 <_malloc_r+0x3bc>
    1748:	addi	s5,s5,16
    174c:	j	137c <_malloc_r+0x2d0>
    1750:	srai	a3,a3,0x2
    1754:	li	a5,1
    1758:	sll	a5,a5,a3
    175c:	or	a0,a0,a5
    1760:	sw	a0,4(s2)
    1764:	j	15b8 <_malloc_r+0x50c>
    1768:	add	a1,s7,s5
    176c:	neg	a1,a1
    1770:	slli	a1,a1,0x14
    1774:	srli	s4,a1,0x14
    1778:	mv	a1,s4
    177c:	mv	a0,s3
    1780:	jal	1d2c <_sbrk_r>
    1784:	li	a5,-1
    1788:	bne	a0,a5,1410 <_malloc_r+0x364>
    178c:	li	s4,0
    1790:	j	1418 <_malloc_r+0x36c>
    1794:	lw	s8,8(sp)
    1798:	li	a5,1
    179c:	sw	a5,4(s7)
    17a0:	mv	a0,s3
    17a4:	jal	18d0 <__malloc_unlock>
    17a8:	lw	s4,24(sp)
    17ac:	lw	s5,20(sp)
    17b0:	lw	s6,16(sp)
    17b4:	lw	s7,12(sp)
    17b8:	lw	s9,4(sp)
    17bc:	j	12e8 <_malloc_r+0x23c>
    17c0:	li	a3,84
    17c4:	bltu	a3,a4,1840 <_malloc_r+0x794>
    17c8:	srli	a4,a5,0xc
    17cc:	addi	a2,a4,111
    17d0:	slli	a2,a2,0x3
    17d4:	addi	a3,a4,110
    17d8:	j	158c <_malloc_r+0x4e0>
    17dc:	li	a4,340
    17e0:	bltu	a4,a5,185c <_malloc_r+0x7b0>
    17e4:	srli	a5,s1,0xf
    17e8:	addi	a1,a5,120
    17ec:	addi	a6,a5,119
    17f0:	slli	a2,a1,0x3
    17f4:	j	1188 <_malloc_r+0xdc>
    17f8:	lui	s8,0x2
    17fc:	addi	s8,s8,1800 # 2708 <__malloc_current_mallinfo>
    1800:	lw	a4,0(s8)
    1804:	add	a4,s5,a4
    1808:	sw	a4,0(s8)
    180c:	j	13b8 <_malloc_r+0x30c>
    1810:	lw	s0,8(s2)
    1814:	lw	a5,4(s0)
    1818:	j	14b0 <_malloc_r+0x404>
    181c:	slli	a5,a0,0x14
    1820:	bnez	a5,13b8 <_malloc_r+0x30c>
    1824:	lw	s7,8(s2)
    1828:	add	a5,s6,s5
    182c:	ori	a5,a5,1
    1830:	sw	a5,4(s7)
    1834:	j	146c <_malloc_r+0x3c0>
    1838:	sw	s7,1440(s9)
    183c:	j	13d0 <_malloc_r+0x324>
    1840:	li	a3,340
    1844:	bltu	a3,a4,188c <_malloc_r+0x7e0>
    1848:	srli	a4,a5,0xf
    184c:	addi	a2,a4,120
    1850:	slli	a2,a2,0x3
    1854:	addi	a3,a4,119
    1858:	j	158c <_malloc_r+0x4e0>
    185c:	li	a4,1364
    1860:	bltu	a4,a5,18a8 <_malloc_r+0x7fc>
    1864:	srli	a5,s1,0x12
    1868:	addi	a1,a5,125
    186c:	addi	a6,a5,124
    1870:	slli	a2,a1,0x3
    1874:	j	1188 <_malloc_r+0xdc>
    1878:	addi	s9,s9,-8
    187c:	add	s5,s5,s9
    1880:	sub	s5,s5,s7
    1884:	li	s4,0
    1888:	j	1418 <_malloc_r+0x36c>
    188c:	li	a3,1364
    1890:	bltu	a3,a4,18b8 <_malloc_r+0x80c>
    1894:	srli	a4,a5,0x12
    1898:	addi	a2,a4,125
    189c:	slli	a2,a2,0x3
    18a0:	addi	a3,a4,124
    18a4:	j	158c <_malloc_r+0x4e0>
    18a8:	li	a2,1016
    18ac:	li	a1,127
    18b0:	li	a6,126
    18b4:	j	1188 <_malloc_r+0xdc>
    18b8:	li	a2,1016
    18bc:	li	a3,126
    18c0:	j	158c <_malloc_r+0x4e0>
    18c4:	lw	a5,4(s2)
    18c8:	j	1704 <_malloc_r+0x658>

Disassembly of section .text.__malloc_lock:

000018cc <__malloc_lock>:
    18cc:	ret

Disassembly of section .text.__malloc_unlock:

000018d0 <__malloc_unlock>:
    18d0:	ret

Disassembly of section .text._fclose_r:

000018d4 <_fclose_r>:
    18d4:	addi	sp,sp,-16
    18d8:	sw	ra,12(sp)
    18dc:	sw	s2,0(sp)
    18e0:	beqz	a1,1910 <_fclose_r+0x3c>
    18e4:	sw	s0,8(sp)
    18e8:	sw	s1,4(sp)
    18ec:	mv	s0,a1
    18f0:	mv	s1,a0
    18f4:	beqz	a0,1900 <_fclose_r+0x2c>
    18f8:	lw	a5,52(a0)
    18fc:	beqz	a5,19d4 <_fclose_r+0x100>
    1900:	lh	a5,12(s0)
    1904:	bnez	a5,1928 <_fclose_r+0x54>
    1908:	lw	s0,8(sp)
    190c:	lw	s1,4(sp)
    1910:	lw	ra,12(sp)
    1914:	li	s2,0
    1918:	mv	a0,s2
    191c:	lw	s2,0(sp)
    1920:	addi	sp,sp,16
    1924:	ret
    1928:	mv	a1,s0
    192c:	mv	a0,s1
    1930:	jal	19ec <__sflush_r>
    1934:	lw	a5,44(s0)
    1938:	mv	s2,a0
    193c:	beqz	a5,1950 <_fclose_r+0x7c>
    1940:	lw	a1,28(s0)
    1944:	mv	a0,s1
    1948:	jalr	a5
    194c:	bltz	a0,19b4 <_fclose_r+0xe0>
    1950:	lhu	a5,12(s0)
    1954:	andi	a5,a5,128
    1958:	bnez	a5,19c4 <_fclose_r+0xf0>
    195c:	lw	a1,48(s0)
    1960:	beqz	a1,1978 <_fclose_r+0xa4>
    1964:	addi	a5,s0,64
    1968:	beq	a1,a5,1974 <_fclose_r+0xa0>
    196c:	mv	a0,s1
    1970:	jal	db4 <_free_r>
    1974:	sw	zero,48(s0)
    1978:	lw	a1,68(s0)
    197c:	beqz	a1,198c <_fclose_r+0xb8>
    1980:	mv	a0,s1
    1984:	jal	db4 <_free_r>
    1988:	sw	zero,68(s0)
    198c:	jal	5b8 <__sfp_lock_acquire>
    1990:	sh	zero,12(s0)
    1994:	jal	5bc <__sfp_lock_release>
    1998:	lw	ra,12(sp)
    199c:	lw	s0,8(sp)
    19a0:	lw	s1,4(sp)
    19a4:	mv	a0,s2
    19a8:	lw	s2,0(sp)
    19ac:	addi	sp,sp,16
    19b0:	ret
    19b4:	lhu	a5,12(s0)
    19b8:	li	s2,-1
    19bc:	andi	a5,a5,128
    19c0:	beqz	a5,195c <_fclose_r+0x88>
    19c4:	lw	a1,16(s0)
    19c8:	mv	a0,s1
    19cc:	jal	db4 <_free_r>
    19d0:	j	195c <_fclose_r+0x88>
    19d4:	jal	594 <__sinit>
    19d8:	j	1900 <_fclose_r+0x2c>

Disassembly of section .text.fclose:

000019dc <fclose>:
    19dc:	lui	a5,0x2
    19e0:	mv	a1,a0
    19e4:	lw	a0,1432(a5) # 2598 <_impure_ptr>
    19e8:	j	18d4 <_fclose_r>

Disassembly of section .text.__sflush_r:

000019ec <__sflush_r>:
    19ec:	lh	a4,12(a1)
    19f0:	addi	sp,sp,-32
    19f4:	sw	s0,24(sp)
    19f8:	sw	s3,12(sp)
    19fc:	sw	ra,28(sp)
    1a00:	andi	a5,a4,8
    1a04:	mv	s0,a1
    1a08:	mv	s3,a0
    1a0c:	bnez	a5,1b2c <__sflush_r+0x140>
    1a10:	lui	a5,0x1
    1a14:	addi	a5,a5,-2048 # 800 <_close_r+0xc>
    1a18:	lw	a3,4(a1)
    1a1c:	or	a5,a4,a5
    1a20:	sh	a5,12(a1)
    1a24:	blez	a3,1bb8 <__sflush_r+0x1cc>
    1a28:	lw	a6,40(s0)
    1a2c:	beqz	a6,1b14 <__sflush_r+0x128>
    1a30:	sw	s1,20(sp)
    1a34:	slli	a3,a4,0x13
    1a38:	lw	s1,0(s3)
    1a3c:	sw	zero,0(s3)
    1a40:	bltz	a3,1bd0 <__sflush_r+0x1e4>
    1a44:	lw	a1,28(s0)
    1a48:	li	a2,0
    1a4c:	li	a3,1
    1a50:	mv	a0,s3
    1a54:	jalr	a6
    1a58:	li	a5,-1
    1a5c:	mv	a2,a0
    1a60:	beq	a0,a5,1c14 <__sflush_r+0x228>
    1a64:	lh	a5,12(s0)
    1a68:	lw	a6,40(s0)
    1a6c:	andi	a5,a5,4
    1a70:	beqz	a5,1a8c <__sflush_r+0xa0>
    1a74:	lw	a4,4(s0)
    1a78:	lw	a5,48(s0)
    1a7c:	sub	a2,a2,a4
    1a80:	beqz	a5,1a8c <__sflush_r+0xa0>
    1a84:	lw	a5,60(s0)
    1a88:	sub	a2,a2,a5
    1a8c:	lw	a1,28(s0)
    1a90:	li	a3,0
    1a94:	mv	a0,s3
    1a98:	jalr	a6
    1a9c:	li	a4,-1
    1aa0:	lh	a5,12(s0)
    1aa4:	bne	a0,a4,1bd8 <__sflush_r+0x1ec>
    1aa8:	lw	a3,0(s3)
    1aac:	li	a4,29
    1ab0:	bltu	a4,a3,1c30 <__sflush_r+0x244>
    1ab4:	lui	a4,0x20400
    1ab8:	addi	a4,a4,1 # 20400001 <__sp+0x203f0001>
    1abc:	srl	a4,a4,a3
    1ac0:	andi	a4,a4,1
    1ac4:	beqz	a4,1c30 <__sflush_r+0x244>
    1ac8:	lw	a2,16(s0)
    1acc:	lui	a4,0xfffff
    1ad0:	addi	a4,a4,2047 # fffff7ff <__sp+0xfffef7ff>
    1ad4:	and	a4,a5,a4
    1ad8:	sh	a4,12(s0)
    1adc:	sw	zero,4(s0)
    1ae0:	sw	a2,0(s0)
    1ae4:	slli	a4,a5,0x13
    1ae8:	bgez	a4,1af0 <__sflush_r+0x104>
    1aec:	beqz	a3,1bfc <__sflush_r+0x210>
    1af0:	lw	a1,48(s0)
    1af4:	sw	s1,0(s3)
    1af8:	beqz	a1,1c0c <__sflush_r+0x220>
    1afc:	addi	a5,s0,64
    1b00:	beq	a1,a5,1b0c <__sflush_r+0x120>
    1b04:	mv	a0,s3
    1b08:	jal	db4 <_free_r>
    1b0c:	lw	s1,20(sp)
    1b10:	sw	zero,48(s0)
    1b14:	lw	ra,28(sp)
    1b18:	lw	s0,24(sp)
    1b1c:	lw	s3,12(sp)
    1b20:	li	a0,0
    1b24:	addi	sp,sp,32
    1b28:	ret
    1b2c:	sw	s2,16(sp)
    1b30:	lw	s2,16(a1)
    1b34:	beqz	s2,1bc8 <__sflush_r+0x1dc>
    1b38:	sw	s1,20(sp)
    1b3c:	lw	s1,0(a1)
    1b40:	andi	a4,a4,3
    1b44:	sw	s2,0(a1)
    1b48:	sub	s1,s1,s2
    1b4c:	li	a5,0
    1b50:	bnez	a4,1b58 <__sflush_r+0x16c>
    1b54:	lw	a5,20(a1)
    1b58:	sw	a5,8(s0)
    1b5c:	bgtz	s1,1b6c <__sflush_r+0x180>
    1b60:	j	1bc4 <__sflush_r+0x1d8>
    1b64:	add	s2,s2,a0
    1b68:	blez	s1,1bc4 <__sflush_r+0x1d8>
    1b6c:	lw	a5,36(s0)
    1b70:	lw	a1,28(s0)
    1b74:	mv	a3,s1
    1b78:	mv	a2,s2
    1b7c:	mv	a0,s3
    1b80:	jalr	a5
    1b84:	sub	s1,s1,a0
    1b88:	bgtz	a0,1b64 <__sflush_r+0x178>
    1b8c:	lh	a5,12(s0)
    1b90:	lw	s2,16(sp)
    1b94:	ori	a5,a5,64
    1b98:	lw	ra,28(sp)
    1b9c:	sh	a5,12(s0)
    1ba0:	lw	s0,24(sp)
    1ba4:	lw	s1,20(sp)
    1ba8:	lw	s3,12(sp)
    1bac:	li	a0,-1
    1bb0:	addi	sp,sp,32
    1bb4:	ret
    1bb8:	lw	a3,60(a1)
    1bbc:	bgtz	a3,1a28 <__sflush_r+0x3c>
    1bc0:	j	1b14 <__sflush_r+0x128>
    1bc4:	lw	s1,20(sp)
    1bc8:	lw	s2,16(sp)
    1bcc:	j	1b14 <__sflush_r+0x128>
    1bd0:	lw	a2,80(s0)
    1bd4:	j	1a6c <__sflush_r+0x80>
    1bd8:	lw	a3,16(s0)
    1bdc:	lui	a4,0xfffff
    1be0:	addi	a4,a4,2047 # fffff7ff <__sp+0xfffef7ff>
    1be4:	and	a4,a5,a4
    1be8:	sh	a4,12(s0)
    1bec:	sw	zero,4(s0)
    1bf0:	sw	a3,0(s0)
    1bf4:	slli	a4,a5,0x13
    1bf8:	bgez	a4,1af0 <__sflush_r+0x104>
    1bfc:	lw	a1,48(s0)
    1c00:	sw	a0,80(s0)
    1c04:	sw	s1,0(s3)
    1c08:	bnez	a1,1afc <__sflush_r+0x110>
    1c0c:	lw	s1,20(sp)
    1c10:	j	1b14 <__sflush_r+0x128>
    1c14:	lw	a5,0(s3)
    1c18:	beqz	a5,1a64 <__sflush_r+0x78>
    1c1c:	li	a4,29
    1c20:	beq	a5,a4,1c38 <__sflush_r+0x24c>
    1c24:	li	a4,22
    1c28:	beq	a5,a4,1c38 <__sflush_r+0x24c>
    1c2c:	lh	a5,12(s0)
    1c30:	ori	a5,a5,64
    1c34:	j	1b98 <__sflush_r+0x1ac>
    1c38:	sw	s1,0(s3)
    1c3c:	lw	s1,20(sp)
    1c40:	j	1b14 <__sflush_r+0x128>

Disassembly of section .text._fflush_r:

00001c44 <_fflush_r>:
    1c44:	addi	sp,sp,-32
    1c48:	sw	s0,24(sp)
    1c4c:	sw	ra,28(sp)
    1c50:	mv	s0,a0
    1c54:	beqz	a0,1c60 <_fflush_r+0x1c>
    1c58:	lw	a5,52(a0)
    1c5c:	beqz	a5,1c90 <_fflush_r+0x4c>
    1c60:	lh	a5,12(a1)
    1c64:	bnez	a5,1c7c <_fflush_r+0x38>
    1c68:	lw	ra,28(sp)
    1c6c:	lw	s0,24(sp)
    1c70:	li	a0,0
    1c74:	addi	sp,sp,32
    1c78:	ret
    1c7c:	mv	a0,s0
    1c80:	lw	s0,24(sp)
    1c84:	lw	ra,28(sp)
    1c88:	addi	sp,sp,32
    1c8c:	j	19ec <__sflush_r>
    1c90:	sw	a1,12(sp)
    1c94:	jal	594 <__sinit>
    1c98:	lw	a1,12(sp)
    1c9c:	j	1c60 <_fflush_r+0x1c>

Disassembly of section .text.fflush:

00001ca0 <fflush>:
    1ca0:	beqz	a0,1d04 <fflush+0x64>
    1ca4:	lui	a5,0x2
    1ca8:	mv	a1,a0
    1cac:	lw	a0,1432(a5) # 2598 <_impure_ptr>
    1cb0:	beqz	a0,1cbc <fflush+0x1c>
    1cb4:	lw	a5,52(a0)
    1cb8:	beqz	a5,1cd0 <fflush+0x30>
    1cbc:	lh	a5,12(a1)
    1cc0:	bnez	a5,1ccc <fflush+0x2c>
    1cc4:	li	a0,0
    1cc8:	ret
    1ccc:	j	19ec <__sflush_r>
    1cd0:	addi	sp,sp,-32
    1cd4:	sw	a1,12(sp)
    1cd8:	sw	a0,8(sp)
    1cdc:	sw	ra,28(sp)
    1ce0:	jal	594 <__sinit>
    1ce4:	lw	a1,12(sp)
    1ce8:	lw	a0,8(sp)
    1cec:	lh	a5,12(a1)
    1cf0:	bnez	a5,1d20 <fflush+0x80>
    1cf4:	lw	ra,28(sp)
    1cf8:	li	a0,0
    1cfc:	addi	sp,sp,32
    1d00:	ret
    1d04:	lui	a2,0x2
    1d08:	lui	a1,0x2
    1d0c:	lui	a0,0x2
    1d10:	addi	a2,a2,80 # 2050 <__sglue>
    1d14:	addi	a1,a1,-956 # 1c44 <_fflush_r>
    1d18:	addi	a0,a0,96 # 2060 <_impure_data>
    1d1c:	j	5e8 <_fwalk_sglue>
    1d20:	lw	ra,28(sp)
    1d24:	addi	sp,sp,32
    1d28:	j	19ec <__sflush_r>

Disassembly of section .text._sbrk_r:

00001d2c <_sbrk_r>:
    1d2c:	addi	sp,sp,-16
    1d30:	sw	s0,8(sp)
    1d34:	sw	s1,4(sp)
    1d38:	mv	s0,a0
    1d3c:	lui	s1,0x2
    1d40:	mv	a0,a1
    1d44:	sw	ra,12(sp)
    1d48:	sw	zero,1792(s1) # 2700 <errno>
    1d4c:	jal	1f7c <_sbrk>
    1d50:	li	a5,-1
    1d54:	beq	a0,a5,1d6c <_sbrk_r+0x40>
    1d58:	lw	ra,12(sp)
    1d5c:	lw	s0,8(sp)
    1d60:	lw	s1,4(sp)
    1d64:	addi	sp,sp,16
    1d68:	ret
    1d6c:	lw	a5,1792(s1)
    1d70:	beqz	a5,1d58 <_sbrk_r+0x2c>
    1d74:	lw	ra,12(sp)
    1d78:	sw	a5,0(s0)
    1d7c:	lw	s0,8(sp)
    1d80:	lw	s1,4(sp)
    1d84:	addi	sp,sp,16
    1d88:	ret

Disassembly of section .text.__libc_fini_array:

00001d8c <__libc_fini_array>:
    1d8c:	addi	sp,sp,-16
    1d90:	sw	s0,8(sp)
    1d94:	li	s0,0
    1d98:	li	a5,0
    1d9c:	sub	s0,s0,a5
    1da0:	sw	s1,4(sp)
    1da4:	sw	ra,12(sp)
    1da8:	srai	s1,s0,0x2
    1dac:	beqz	s1,1dcc <__libc_fini_array+0x40>
    1db0:	addi	s0,s0,-4
    1db4:	add	s0,s0,a5
    1db8:	lw	a5,0(s0)
    1dbc:	addi	s1,s1,-1
    1dc0:	addi	s0,s0,-4
    1dc4:	jalr	a5
    1dc8:	bnez	s1,1db8 <__libc_fini_array+0x2c>
    1dcc:	lw	ra,12(sp)
    1dd0:	lw	s0,8(sp)
    1dd4:	lw	s1,4(sp)
    1dd8:	addi	sp,sp,16
    1ddc:	ret

Disassembly of section .text.__register_exitproc:

00001de0 <__register_exitproc>:
    1de0:	lui	a4,0x2
    1de4:	lw	a5,1796(a4) # 2704 <__atexit>
    1de8:	beqz	a5,1e40 <__register_exitproc+0x60>
    1dec:	lw	a4,4(a5)
    1df0:	li	a6,31
    1df4:	blt	a6,a4,1e78 <__register_exitproc+0x98>
    1df8:	slli	a6,a4,0x2
    1dfc:	beqz	a0,1e28 <__register_exitproc+0x48>
    1e00:	add	t1,a5,a6
    1e04:	sw	a2,136(t1)
    1e08:	lw	a7,392(a5)
    1e0c:	li	a2,1
    1e10:	sll	a2,a2,a4
    1e14:	or	a7,a7,a2
    1e18:	sw	a7,392(a5)
    1e1c:	sw	a3,264(t1)
    1e20:	li	a3,2
    1e24:	beq	a0,a3,1e54 <__register_exitproc+0x74>
    1e28:	addi	a4,a4,1
    1e2c:	sw	a4,4(a5)
    1e30:	add	a5,a5,a6
    1e34:	sw	a1,8(a5)
    1e38:	li	a0,0
    1e3c:	ret
    1e40:	lui	a5,0x2
    1e44:	addi	a6,a5,1852 # 273c <__atexit0>
    1e48:	sw	a6,1796(a4)
    1e4c:	addi	a5,a5,1852
    1e50:	j	1dec <__register_exitproc+0xc>
    1e54:	lw	a3,396(a5)
    1e58:	addi	a4,a4,1
    1e5c:	sw	a4,4(a5)
    1e60:	or	a3,a3,a2
    1e64:	sw	a3,396(a5)
    1e68:	add	a5,a5,a6
    1e6c:	sw	a1,8(a5)
    1e70:	li	a0,0
    1e74:	ret
    1e78:	li	a0,-1
    1e7c:	ret

Disassembly of section .text._close:

00001e80 <_close>:
    1e80:	addi	sp,sp,-16
    1e84:	sw	ra,12(sp)
    1e88:	sw	s0,8(sp)
    1e8c:	li	a7,57
    1e90:	ecall
    1e94:	mv	s0,a0
    1e98:	bltz	a0,1eb0 <_close+0x30>
    1e9c:	lw	ra,12(sp)
    1ea0:	mv	a0,s0
    1ea4:	lw	s0,8(sp)
    1ea8:	addi	sp,sp,16
    1eac:	ret
    1eb0:	neg	s0,s0
    1eb4:	jal	203c <__errno>
    1eb8:	sw	s0,0(a0)
    1ebc:	li	s0,-1
    1ec0:	j	1e9c <_close+0x1c>

Disassembly of section .text._exit:

00001ec4 <_exit>:
    1ec4:	li	a7,93
    1ec8:	ecall
    1ecc:	bltz	a0,1ed4 <_exit+0x10>
    1ed0:	j	1ed0 <_exit+0xc>
    1ed4:	addi	sp,sp,-16
    1ed8:	sw	s0,8(sp)
    1edc:	mv	s0,a0
    1ee0:	sw	ra,12(sp)
    1ee4:	neg	s0,s0
    1ee8:	jal	203c <__errno>
    1eec:	sw	s0,0(a0)
    1ef0:	j	1ef0 <_exit+0x2c>

Disassembly of section .text._lseek:

00001ef4 <_lseek>:
    1ef4:	addi	sp,sp,-16
    1ef8:	sw	ra,12(sp)
    1efc:	sw	s0,8(sp)
    1f00:	li	a7,62
    1f04:	ecall
    1f08:	mv	s0,a0
    1f0c:	bltz	a0,1f24 <_lseek+0x30>
    1f10:	lw	ra,12(sp)
    1f14:	mv	a0,s0
    1f18:	lw	s0,8(sp)
    1f1c:	addi	sp,sp,16
    1f20:	ret
    1f24:	neg	s0,s0
    1f28:	jal	203c <__errno>
    1f2c:	sw	s0,0(a0)
    1f30:	li	s0,-1
    1f34:	j	1f10 <_lseek+0x1c>

Disassembly of section .text._read:

00001f38 <_read>:
    1f38:	addi	sp,sp,-16
    1f3c:	sw	ra,12(sp)
    1f40:	sw	s0,8(sp)
    1f44:	li	a7,63
    1f48:	ecall
    1f4c:	mv	s0,a0
    1f50:	bltz	a0,1f68 <_read+0x30>
    1f54:	lw	ra,12(sp)
    1f58:	mv	a0,s0
    1f5c:	lw	s0,8(sp)
    1f60:	addi	sp,sp,16
    1f64:	ret
    1f68:	neg	s0,s0
    1f6c:	jal	203c <__errno>
    1f70:	sw	s0,0(a0)
    1f74:	li	s0,-1
    1f78:	j	1f54 <_read+0x1c>

Disassembly of section .text._sbrk:

00001f7c <_sbrk>:
    1f7c:	lui	a3,0x3
    1f80:	lw	a4,-1844(a3) # 28cc <heap_end.0>
    1f84:	addi	sp,sp,-16
    1f88:	sw	ra,12(sp)
    1f8c:	mv	a5,a0
    1f90:	bnez	a4,1fb0 <_sbrk+0x34>
    1f94:	li	a7,214
    1f98:	li	a0,0
    1f9c:	ecall
    1fa0:	li	a2,-1
    1fa4:	mv	a4,a0
    1fa8:	beq	a0,a2,1fdc <_sbrk+0x60>
    1fac:	sw	a0,-1844(a3)
    1fb0:	add	a0,a5,a4
    1fb4:	li	a7,214
    1fb8:	ecall
    1fbc:	lw	a4,-1844(a3)
    1fc0:	add	a5,a5,a4
    1fc4:	bne	a0,a5,1fdc <_sbrk+0x60>
    1fc8:	lw	ra,12(sp)
    1fcc:	sw	a0,-1844(a3)
    1fd0:	mv	a0,a4
    1fd4:	addi	sp,sp,16
    1fd8:	ret
    1fdc:	jal	203c <__errno>
    1fe0:	lw	ra,12(sp)
    1fe4:	li	a5,12
    1fe8:	sw	a5,0(a0)
    1fec:	li	a0,-1
    1ff0:	addi	sp,sp,16
    1ff4:	ret

Disassembly of section .text._write:

00001ff8 <_write>:
    1ff8:	addi	sp,sp,-16
    1ffc:	sw	ra,12(sp)
    2000:	sw	s0,8(sp)
    2004:	li	a7,64
    2008:	ecall
    200c:	mv	s0,a0
    2010:	bltz	a0,2028 <_write+0x30>
    2014:	lw	ra,12(sp)
    2018:	mv	a0,s0
    201c:	lw	s0,8(sp)
    2020:	addi	sp,sp,16
    2024:	ret
    2028:	neg	s0,s0
    202c:	jal	203c <__errno>
    2030:	sw	s0,0(a0)
    2034:	li	s0,-1
    2038:	j	2014 <_write+0x1c>

Disassembly of section .text.__errno:

0000203c <__errno>:
    203c:	lui	a5,0x2
    2040:	lw	a0,1432(a5) # 2598 <_impure_ptr>
    2044:	ret
